	.cpu cortex-m0
	.eabi_attribute 20, 1
	.eabi_attribute 21, 1
	.eabi_attribute 23, 3
	.eabi_attribute 24, 1
	.eabi_attribute 25, 1
	.eabi_attribute 26, 1
	.eabi_attribute 30, 2
	.eabi_attribute 34, 0
	.eabi_attribute 18, 4
	.file	"commands.c"
	.text
.Ltext0:
	.cfi_sections	.debug_frame
	.section	.text.cb_txt_help,"ax",%progbits
	.align	1
	.p2align 2,,3
	.global	cb_txt_help
	.arch armv6s-m
	.syntax unified
	.code	16
	.thumb_func
	.fpu softvfp
	.type	cb_txt_help, %function
cb_txt_help:
.LVL0:
.LFB3:
	.file 1 "commands.c"
	.loc 1 93 44 view -0
	.cfi_startproc
	@ args = 0, pretend = 0, frame = 0
	@ frame_needed = 0, uses_anonymous_args = 0
	.loc 1 94 5 view .LVU1
	.loc 1 95 5 view .LVU2
	.loc 1 97 5 view .LVU3
.LBB8:
	.loc 1 97 10 view .LVU4
	.loc 1 97 10 is_stmt 0 view .LVU5
.LBE8:
	.loc 1 93 44 view .LVU6
	push	{r4, r5, r6, lr}
	.cfi_def_cfa_offset 16
	.cfi_offset 4, -16
	.cfi_offset 5, -12
	.cfi_offset 6, -8
	.cfi_offset 14, -4
	ldr	r4, .L6
	.loc 1 93 44 view .LVU7
	ldr	r2, .L6+4
	movs	r6, r4
	ldr	r1, .L6+8
.LVL1:
	.loc 1 93 44 view .LVU8
	adds	r6, r6, #216
	ldr	r5, .L6+12
	b	.L3
.LVL2:
.L5:
	.loc 1 93 44 view .LVU9
	ldr	r1, [r4]
	ldr	r2, [r4, #8]
	adds	r4, r4, #12
.L3:
.LBB9:
	.loc 1 98 9 is_stmt 1 discriminator 3 view .LVU10
	movs	r0, r5
	bl	xprintf
.LVL3:
	.loc 1 97 5 is_stmt 0 discriminator 3 view .LVU11
	cmp	r4, r6
	bne	.L5
.LBE9:
	.loc 1 101 5 is_stmt 1 view .LVU12
	.loc 1 102 1 is_stmt 0 view .LVU13
	movs	r0, #0
	@ sp needed
	pop	{r4, r5, r6, pc}
.L7:
	.align	2
.L6:
	.word	commands+12
	.word	.LC0
	.word	.LC2
	.word	.LC6
	.cfi_endproc
.LFE3:
	.size	cb_txt_help, .-cb_txt_help
	.section	.text.cb_txt_version,"ax",%progbits
	.align	1
	.p2align 2,,3
	.global	cb_txt_version
	.syntax unified
	.code	16
	.thumb_func
	.fpu softvfp
	.type	cb_txt_version, %function
cb_txt_version:
.LVL4:
.LFB4:
	.loc 1 104 47 is_stmt 1 view -0
	.cfi_startproc
	@ args = 0, pretend = 0, frame = 0
	@ frame_needed = 0, uses_anonymous_args = 0
	.loc 1 105 5 view .LVU15
	.loc 1 106 5 view .LVU16
	.loc 1 108 5 view .LVU17
	.loc 1 104 47 is_stmt 0 view .LVU18
	push	{r4, lr}
	.cfi_def_cfa_offset 8
	.cfi_offset 4, -8
	.cfi_offset 14, -4
	.loc 1 108 5 view .LVU19
	bl	getVersion
.LVL5:
	.loc 1 108 5 view .LVU20
	movs	r1, r0
	ldr	r0, .L9
	bl	xprintf
.LVL6:
	.loc 1 110 5 is_stmt 1 view .LVU21
	.loc 1 111 1 is_stmt 0 view .LVU22
	@ sp needed
	movs	r0, #0
	pop	{r4, pc}
.L10:
	.align	2
.L9:
	.word	.LC9
	.cfi_endproc
.LFE4:
	.size	cb_txt_version, .-cb_txt_version
	.section	.text.cb_txt_echo,"ax",%progbits
	.align	1
	.p2align 2,,3
	.global	cb_txt_echo
	.syntax unified
	.code	16
	.thumb_func
	.fpu softvfp
	.type	cb_txt_echo, %function
cb_txt_echo:
.LVL7:
.LFB5:
	.loc 1 113 44 is_stmt 1 view -0
	.cfi_startproc
	@ args = 0, pretend = 0, frame = 0
	@ frame_needed = 0, uses_anonymous_args = 0
	.loc 1 114 4 view .LVU24
	.loc 1 116 5 view .LVU25
	.loc 1 113 44 is_stmt 0 view .LVU26
	push	{r4, r5, r6, lr}
	.cfi_def_cfa_offset 16
	.cfi_offset 4, -16
	.cfi_offset 5, -12
	.cfi_offset 6, -8
	.cfi_offset 14, -4
	.loc 1 116 8 view .LVU27
	cmp	r1, #1
	ble	.L12
	.loc 1 117 9 is_stmt 1 view .LVU28
	.loc 1 117 13 is_stmt 0 view .LVU29
	ldr	r5, [r0, #4]
	ldr	r4, .L19
	movs	r2, #2
	movs	r1, r5
.LVL8:
	.loc 1 117 13 view .LVU30
	movs	r0, r4
.LVL9:
	.loc 1 117 13 view .LVU31
	bl	strncasecmp
.LVL10:
	.loc 1 117 12 view .LVU32
	cmp	r0, #0
	beq	.L18
	.loc 1 119 16 is_stmt 1 view .LVU33
	.loc 1 119 19 is_stmt 0 view .LVU34
	ldr	r4, .L19+4
	movs	r2, #3
	movs	r1, r5
	movs	r0, r4
	bl	strncasecmp
.LVL11:
	.loc 1 119 18 view .LVU35
	cmp	r0, #0
	bne	.L16
.LVL12:
	.loc 1 128 5 is_stmt 1 view .LVU36
	bl	state_set_echo
.LVL13:
	.loc 1 129 5 view .LVU37
	movs	r1, r4
.LVL14:
.L14:
	.loc 1 129 5 is_stmt 0 discriminator 4 view .LVU38
	ldr	r0, .L19+8
	bl	xprintf
.LVL15:
	.loc 1 131 5 is_stmt 1 discriminator 4 view .LVU39
	.loc 1 131 12 is_stmt 0 discriminator 4 view .LVU40
	movs	r0, #0
.L11:
	.loc 1 132 1 view .LVU41
	@ sp needed
	pop	{r4, r5, r6, pc}
.L18:
.LVL16:
	.loc 1 128 5 is_stmt 1 view .LVU42
	adds	r0, r0, #1
	bl	state_set_echo
.LVL17:
	.loc 1 129 5 view .LVU43
	movs	r1, r4
	b	.L14
.LVL18:
.L12:
	.loc 1 125 9 view .LVU44
	.loc 1 125 18 is_stmt 0 view .LVU45
	bl	state_get_echo
.LVL19:
	.loc 1 125 9 view .LVU46
	movs	r4, #1
	eors	r4, r0
	uxtb	r4, r4
.LVL20:
	.loc 1 128 5 is_stmt 1 view .LVU47
	movs	r0, r4
	bl	state_set_echo
.LVL21:
	.loc 1 129 5 view .LVU48
	cmp	r4, #0
	bne	.L17
	ldr	r1, .L19+4
	b	.L14
.L17:
	ldr	r1, .L19
	b	.L14
.LVL22:
.L16:
	.loc 1 122 20 is_stmt 0 view .LVU49
	movs	r0, #1
	rsbs	r0, r0, #0
	b	.L11
.L20:
	.align	2
.L19:
	.word	.LC11
	.word	.LC13
	.word	.LC15
	.cfi_endproc
.LFE5:
	.size	cb_txt_echo, .-cb_txt_echo
	.section	.text.cb_txt_power,"ax",%progbits
	.align	1
	.p2align 2,,3
	.global	cb_txt_power
	.syntax unified
	.code	16
	.thumb_func
	.fpu softvfp
	.type	cb_txt_power, %function
cb_txt_power:
.LVL23:
.LFB6:
	.loc 1 134 45 is_stmt 1 view -0
	.cfi_startproc
	@ args = 0, pretend = 0, frame = 8
	@ frame_needed = 0, uses_anonymous_args = 0
	.loc 1 135 5 view .LVU51
	.loc 1 134 45 is_stmt 0 view .LVU52
	push	{r4, r5, r6, r7, lr}
	.cfi_def_cfa_offset 20
	.cfi_offset 4, -20
	.cfi_offset 5, -16
	.cfi_offset 6, -12
	.cfi_offset 7, -8
	.cfi_offset 14, -4
	movs	r7, r0
	sub	sp, sp, #12
	.cfi_def_cfa_offset 32
	.loc 1 134 45 view .LVU53
	movs	r5, r1
	.loc 1 135 8 view .LVU54
	cmp	r1, #1
	ble	.L22
	.loc 1 136 9 is_stmt 1 view .LVU55
	.loc 1 136 13 is_stmt 0 view .LVU56
	ldr	r6, [r0, #4]
	movs	r2, #2
	movs	r1, r6
.LVL24:
	.loc 1 136 13 view .LVU57
	ldr	r0, .L35
.LVL25:
	.loc 1 136 13 view .LVU58
	bl	strncasecmp
.LVL26:
	subs	r4, r0, #0
	.loc 1 136 12 view .LVU59
	beq	.L32
	.loc 1 138 16 is_stmt 1 view .LVU60
	.loc 1 138 19 is_stmt 0 view .LVU61
	movs	r2, #3
	movs	r1, r6
	ldr	r0, .L35+4
	bl	strncasecmp
.LVL27:
	subs	r4, r0, #0
	.loc 1 138 18 view .LVU62
	beq	.L33
	.loc 1 140 16 is_stmt 1 view .LVU63
	.loc 1 140 19 is_stmt 0 view .LVU64
	movs	r2, #4
	movs	r1, r6
	ldr	r0, .L35+8
	bl	strncasecmp
.LVL28:
	subs	r4, r0, #0
	.loc 1 140 18 view .LVU65
	bne	.L28
.LBB10:
	.loc 1 141 13 is_stmt 1 view .LVU66
	.loc 1 141 18 is_stmt 0 view .LVU67
	str	r0, [sp, #4]
	.loc 1 142 13 is_stmt 1 view .LVU68
	movs	r0, #0
	.loc 1 142 16 is_stmt 0 view .LVU69
	cmp	r5, #2
	bne	.L34
.L26:
	.loc 1 145 13 is_stmt 1 view .LVU70
	bl	power_tick
.LVL29:
.L21:
.LBE10:
	.loc 1 155 1 is_stmt 0 view .LVU71
	movs	r0, r4
	add	sp, sp, #12
	@ sp needed
.LVL30:
.LVL31:
	.loc 1 155 1 view .LVU72
	pop	{r4, r5, r6, r7, pc}
.LVL32:
.L32:
	.loc 1 137 13 is_stmt 1 view .LVU73
	movs	r0, #1
	bl	power_set_state
.LVL33:
	b	.L21
.LVL34:
.L22:
.LBB11:
	.loc 1 150 9 view .LVU74
	.loc 1 150 29 is_stmt 0 view .LVU75
	bl	power_get_state
.LVL35:
	.loc 1 151 9 is_stmt 1 view .LVU76
	cmp	r0, #1
	beq	.L30
	ldr	r1, .L35+4
.L27:
	.loc 1 151 9 is_stmt 0 discriminator 4 view .LVU77
	ldr	r0, .L35+12
.LVL36:
	.loc 1 151 9 discriminator 4 view .LVU78
	bl	xprintf
.LVL37:
.LBE11:
	.loc 1 154 12 discriminator 4 view .LVU79
	movs	r4, #0
	b	.L21
.LVL38:
.L30:
.LBB12:
	.loc 1 151 9 view .LVU80
	ldr	r1, .L35
	b	.L27
.LVL39:
.L33:
	.loc 1 151 9 view .LVU81
.LBE12:
	.loc 1 139 13 is_stmt 1 view .LVU82
	movs	r0, #0
	bl	power_set_state
.LVL40:
	b	.L21
.L34:
.LBB13:
	.loc 1 143 17 view .LVU83
	movs	r0, r7
	add	r1, sp, #4
	adds	r0, r0, #8
	bl	xatoi
.LVL41:
	ldr	r0, [sp, #4]
	b	.L26
.L28:
	.loc 1 143 17 is_stmt 0 view .LVU84
.LBE13:
	.loc 1 147 20 view .LVU85
	movs	r4, #1
	rsbs	r4, r4, #0
	b	.L21
.L36:
	.align	2
.L35:
	.word	.LC11
	.word	.LC13
	.word	.LC19
	.word	.LC21
	.cfi_endproc
.LFE6:
	.size	cb_txt_power, .-cb_txt_power
	.section	.text.cb_txt_hdmi,"ax",%progbits
	.align	1
	.p2align 2,,3
	.global	cb_txt_hdmi
	.syntax unified
	.code	16
	.thumb_func
	.fpu softvfp
	.type	cb_txt_hdmi, %function
cb_txt_hdmi:
.LVL42:
.LFB7:
	.loc 1 157 44 is_stmt 1 view -0
	.cfi_startproc
	@ args = 0, pretend = 0, frame = 0
	@ frame_needed = 0, uses_anonymous_args = 0
	.loc 1 158 4 view .LVU87
	.loc 1 160 5 view .LVU88
	.loc 1 157 44 is_stmt 0 view .LVU89
	push	{r4, lr}
	.cfi_def_cfa_offset 8
	.cfi_offset 4, -8
	.cfi_offset 14, -4
	.loc 1 160 8 view .LVU90
	cmp	r1, #1
	ble	.L40
	.loc 1 161 9 is_stmt 1 view .LVU91
	.loc 1 161 13 is_stmt 0 view .LVU92
	ldr	r4, [r0, #4]
	movs	r2, #2
	movs	r1, r4
.LVL43:
	.loc 1 161 13 view .LVU93
	ldr	r0, .L43
.LVL44:
	.loc 1 161 13 view .LVU94
	bl	strncasecmp
.LVL45:
	.loc 1 161 12 view .LVU95
	cmp	r0, #0
	beq	.L41
	.loc 1 163 16 is_stmt 1 view .LVU96
	.loc 1 163 19 is_stmt 0 view .LVU97
	movs	r2, #3
	movs	r1, r4
	ldr	r0, .L43+4
	bl	strncasecmp
.LVL46:
	.loc 1 163 18 view .LVU98
	cmp	r0, #0
	bne	.L42
.L38:
.LVL47:
	.loc 1 169 5 is_stmt 1 view .LVU99
	bl	hdmi_set_state
.LVL48:
	.loc 1 171 5 view .LVU100
	.loc 1 171 12 is_stmt 0 view .LVU101
	movs	r0, #0
.L37:
	.loc 1 172 1 view .LVU102
	@ sp needed
	pop	{r4, pc}
.LVL49:
.L41:
	.loc 1 162 19 view .LVU103
	movs	r0, #1
	b	.L38
.LVL50:
.L40:
	.loc 1 158 9 view .LVU104
	movs	r0, #0
.LVL51:
	.loc 1 158 9 view .LVU105
	b	.L38
.LVL52:
.L42:
	.loc 1 166 20 view .LVU106
	movs	r0, #1
	rsbs	r0, r0, #0
	b	.L37
.L44:
	.align	2
.L43:
	.word	.LC11
	.word	.LC13
	.cfi_endproc
.LFE7:
	.size	cb_txt_hdmi, .-cb_txt_hdmi
	.section	.text.cb_txt_dyper,"ax",%progbits
	.align	1
	.p2align 2,,3
	.global	cb_txt_dyper
	.syntax unified
	.code	16
	.thumb_func
	.fpu softvfp
	.type	cb_txt_dyper, %function
cb_txt_dyper:
.LVL53:
.LFB8:
	.loc 1 174 45 is_stmt 1 view -0
	.cfi_startproc
	@ args = 0, pretend = 0, frame = 8
	@ frame_needed = 0, uses_anonymous_args = 0
	.loc 1 175 4 view .LVU108
	.loc 1 177 5 view .LVU109
	.loc 1 174 45 is_stmt 0 view .LVU110
	push	{r4, r5, lr}
	.cfi_def_cfa_offset 12
	.cfi_offset 4, -12
	.cfi_offset 5, -8
	.cfi_offset 14, -4
	movs	r4, r0
	sub	sp, sp, #12
	.cfi_def_cfa_offset 24
	.loc 1 177 8 view .LVU111
	cmp	r1, #2
	ble	.L51
.LBB14:
	.loc 1 178 9 is_stmt 1 view .LVU112
	.loc 1 178 13 is_stmt 0 view .LVU113
	ldr	r5, [r0, #8]
	movs	r2, #2
	movs	r1, r5
.LVL54:
	.loc 1 178 13 view .LVU114
	ldr	r0, .L53
.LVL55:
	.loc 1 178 13 view .LVU115
	bl	strncasecmp
.LVL56:
	.loc 1 178 12 view .LVU116
	cmp	r0, #0
	beq	.L52
	.loc 1 180 16 is_stmt 1 view .LVU117
	.loc 1 180 19 is_stmt 0 view .LVU118
	movs	r2, #3
	movs	r1, r5
	ldr	r0, .L53+4
	bl	strncasecmp
.LVL57:
	.loc 1 180 18 view .LVU119
	cmp	r0, #0
	bne	.L51
	.loc 1 187 13 view .LVU120
	adds	r0, r4, #4
	add	r1, sp, #4
	.loc 1 181 19 view .LVU121
	movs	r5, #0
.LVL58:
	.loc 1 186 9 is_stmt 1 view .LVU122
	.loc 1 187 9 view .LVU123
	.loc 1 187 13 is_stmt 0 view .LVU124
	bl	xatoi
.LVL59:
	.loc 1 187 12 view .LVU125
	cmp	r0, #1
	beq	.L49
.L50:
	.loc 1 187 12 view .LVU126
.LBE14:
	.loc 1 196 5 is_stmt 1 view .LVU127
	.loc 1 196 12 is_stmt 0 view .LVU128
	movs	r0, #0
.LVL60:
.L45:
	.loc 1 197 1 view .LVU129
	add	sp, sp, #12
	@ sp needed
.LVL61:
	.loc 1 197 1 view .LVU130
	pop	{r4, r5, pc}
.LVL62:
.L52:
.LBB15:
	.loc 1 187 13 view .LVU131
	adds	r0, r4, #4
	add	r1, sp, #4
	.loc 1 179 19 view .LVU132
	movs	r5, #1
.LVL63:
	.loc 1 186 9 is_stmt 1 view .LVU133
	.loc 1 187 9 view .LVU134
	.loc 1 187 13 is_stmt 0 view .LVU135
	bl	xatoi
.LVL64:
	.loc 1 187 12 view .LVU136
	cmp	r0, #1
	bne	.L50
.L49:
	.loc 1 188 13 is_stmt 1 view .LVU137
	.loc 1 188 18 is_stmt 0 view .LVU138
	ldr	r3, [sp, #4]
	movs	r1, r5
	uxtb	r0, r3
	bl	dyper_set_state
.LVL65:
	.loc 1 188 16 view .LVU139
	cmp	r0, #0
	bne	.L50
.LVL66:
.L51:
	.loc 1 188 16 view .LVU140
.LBE15:
	.loc 1 193 16 view .LVU141
	movs	r0, #1
	rsbs	r0, r0, #0
	b	.L45
.L54:
	.align	2
.L53:
	.word	.LC11
	.word	.LC13
	.cfi_endproc
.LFE8:
	.size	cb_txt_dyper, .-cb_txt_dyper
	.section	.text.cb_txt_dut,"ax",%progbits
	.align	1
	.p2align 2,,3
	.global	cb_txt_dut
	.syntax unified
	.code	16
	.thumb_func
	.fpu softvfp
	.type	cb_txt_dut, %function
cb_txt_dut:
.LVL67:
.LFB10:
	.loc 1 216 43 is_stmt 1 view -0
	.cfi_startproc
	@ args = 0, pretend = 0, frame = 0
	@ frame_needed = 0, uses_anonymous_args = 0
	.loc 1 217 5 view .LVU143
	.loc 1 218 5 view .LVU144
	.loc 1 221 5 view .LVU145
	.loc 1 216 43 is_stmt 0 view .LVU146
	push	{r4, lr}
	.cfi_def_cfa_offset 8
	.cfi_offset 4, -8
	.cfi_offset 14, -4
	.loc 1 221 5 view .LVU147
	bl	dut
.LVL68:
	.loc 1 223 5 is_stmt 1 view .LVU148
	.loc 1 224 1 is_stmt 0 view .LVU149
	@ sp needed
	movs	r0, #0
	pop	{r4, pc}
	.cfi_endproc
.LFE10:
	.size	cb_txt_dut, .-cb_txt_dut
	.section	.text.cb_txt_ts,"ax",%progbits
	.align	1
	.p2align 2,,3
	.global	cb_txt_ts
	.syntax unified
	.code	16
	.thumb_func
	.fpu softvfp
	.type	cb_txt_ts, %function
cb_txt_ts:
.LVL69:
.LFB11:
	.loc 1 226 42 is_stmt 1 view -0
	.cfi_startproc
	@ args = 0, pretend = 0, frame = 0
	@ frame_needed = 0, uses_anonymous_args = 0
	.loc 1 227 5 view .LVU151
	.loc 1 228 5 view .LVU152
	.loc 1 230 5 view .LVU153
	.loc 1 226 42 is_stmt 0 view .LVU154
	push	{r4, lr}
	.cfi_def_cfa_offset 8
	.cfi_offset 4, -8
	.cfi_offset 14, -4
	.loc 1 230 5 view .LVU155
	bl	ts
.LVL70:
	.loc 1 232 5 is_stmt 1 view .LVU156
	.loc 1 233 1 is_stmt 0 view .LVU157
	@ sp needed
	movs	r0, #0
	pop	{r4, pc}
	.cfi_endproc
.LFE11:
	.size	cb_txt_ts, .-cb_txt_ts
	.section	.text.print_color,"ax",%progbits
	.align	1
	.p2align 2,,3
	.syntax unified
	.code	16
	.thumb_func
	.fpu softvfp
	.type	print_color, %function
print_color:
.LVL71:
.LFB12:
	.loc 1 235 38 is_stmt 1 view -0
	.cfi_startproc
	@ args = 0, pretend = 0, frame = 8
	@ frame_needed = 0, uses_anonymous_args = 0
	.loc 1 236 5 view .LVU159
	.loc 1 235 38 is_stmt 0 view .LVU160
	push	{r4, r5, lr}
	.cfi_def_cfa_offset 12
	.cfi_offset 4, -12
	.cfi_offset 5, -8
	.cfi_offset 14, -4
	sub	sp, sp, #20
	.cfi_def_cfa_offset 32
	.loc 1 235 38 view .LVU161
	movs	r4, r0
	.loc 1 236 22 view .LVU162
	bl	led_get_color
.LVL72:
	.loc 1 237 5 is_stmt 1 view .LVU163
	.loc 1 236 22 is_stmt 0 view .LVU164
	lsls	r5, r0, #8
	lsls	r3, r0, #16
	.loc 1 237 5 view .LVU165
	lsrs	r5, r5, #24
	uxtb	r2, r0
	lsrs	r3, r3, #24
	adds	r1, r4, #1
	str	r5, [sp]
	ldr	r0, .L58
	bl	xprintf
.LVL73:
	.loc 1 238 1 view .LVU166
	add	sp, sp, #20
	@ sp needed
.LVL74:
	.loc 1 238 1 view .LVU167
	pop	{r4, r5, pc}
.L59:
	.align	2
.L58:
	.word	.LC27
	.cfi_endproc
.LFE12:
	.size	print_color, .-print_color
	.section	.text.cb_txt_clr,"ax",%progbits
	.align	1
	.p2align 2,,3
	.global	cb_txt_clr
	.syntax unified
	.code	16
	.thumb_func
	.fpu softvfp
	.type	cb_txt_clr, %function
cb_txt_clr:
.LVL75:
.LFB14:
	.loc 1 267 43 is_stmt 1 view -0
	.cfi_startproc
	@ args = 0, pretend = 0, frame = 0
	@ frame_needed = 0, uses_anonymous_args = 0
	.loc 1 268 5 view .LVU169
	.loc 1 269 5 view .LVU170
	.loc 1 271 5 view .LVU171
	.loc 1 267 43 is_stmt 0 view .LVU172
	push	{r4, lr}
	.cfi_def_cfa_offset 8
	.cfi_offset 4, -8
	.cfi_offset 14, -4
	.loc 1 271 5 view .LVU173
	bl	oled_clean_screen
.LVL76:
	.loc 1 273 5 is_stmt 1 view .LVU174
	.loc 1 274 1 is_stmt 0 view .LVU175
	@ sp needed
	movs	r0, #0
	pop	{r4, pc}
	.cfi_endproc
.LFE14:
	.size	cb_txt_clr, .-cb_txt_clr
	.section	.text.cb_txt_text,"ax",%progbits
	.align	1
	.p2align 2,,3
	.global	cb_txt_text
	.syntax unified
	.code	16
	.thumb_func
	.fpu softvfp
	.type	cb_txt_text, %function
cb_txt_text:
.LVL77:
.LFB15:
	.loc 1 276 44 is_stmt 1 view -0
	.cfi_startproc
	@ args = 0, pretend = 0, frame = 8
	@ frame_needed = 0, uses_anonymous_args = 0
	.loc 1 277 5 view .LVU177
	.loc 1 279 5 view .LVU178
	.loc 1 276 44 is_stmt 0 view .LVU179
	push	{r4, r5, r6, r7, lr}
	.cfi_def_cfa_offset 20
	.cfi_offset 4, -20
	.cfi_offset 5, -16
	.cfi_offset 6, -12
	.cfi_offset 7, -8
	.cfi_offset 14, -4
	mov	r7, r9
	mov	lr, r10
	mov	r6, r8
	push	{r6, r7, lr}
	.cfi_def_cfa_offset 32
	.cfi_offset 8, -32
	.cfi_offset 9, -28
	.cfi_offset 10, -24
	movs	r5, r0
	sub	sp, sp, #8
	.cfi_def_cfa_offset 40
	.loc 1 276 44 view .LVU180
	movs	r7, r1
	.loc 1 279 8 view .LVU181
	cmp	r1, #4
	ble	.L66
.LBB16:
	.loc 1 280 9 is_stmt 1 view .LVU182
	.loc 1 282 9 view .LVU183
	mov	r1, sp
.LVL78:
	.loc 1 282 9 is_stmt 0 view .LVU184
	adds	r0, r0, #4
.LVL79:
	.loc 1 282 9 view .LVU185
	bl	xatoi
.LVL80:
	.loc 1 283 9 is_stmt 1 view .LVU186
	movs	r0, r5
	add	r1, sp, #4
	adds	r0, r0, #8
	bl	xatoi
.LVL81:
	.loc 1 284 9 view .LVU187
	.loc 1 284 12 is_stmt 0 view .LVU188
	ldr	r3, [sp]
	cmp	r3, #128
	bhi	.L66
	.loc 1 284 34 discriminator 1 view .LVU189
	ldr	r3, [sp, #4]
	cmp	r3, #32
	bls	.L70
.L66:
.LBE16:
	.loc 1 301 12 view .LVU190
	movs	r0, #1
	rsbs	r0, r0, #0
.L61:
	.loc 1 302 1 view .LVU191
	add	sp, sp, #8
	@ sp needed
.LVL82:
.LVL83:
	.loc 1 302 1 view .LVU192
	pop	{r2, r3, r4}
	mov	r8, r2
	mov	r9, r3
	mov	r10, r4
	pop	{r4, r5, r6, r7, pc}
.LVL84:
.L70:
.LBB18:
	.loc 1 287 9 is_stmt 1 view .LVU193
	.loc 1 287 28 is_stmt 0 view .LVU194
	ldr	r0, [r5, #12]
	bl	oled_color_from_string
.LVL85:
	.loc 1 289 9 view .LVU195
	ldr	r6, .L71
	.loc 1 287 28 view .LVU196
	mov	r10, r0
.LVL86:
	.loc 1 289 9 is_stmt 1 view .LVU197
	movs	r2, #17
	movs	r1, #0
	movs	r0, r6
	bl	memset
.LVL87:
	.loc 1 290 9 view .LVU198
.LBB17:
	.loc 1 290 14 view .LVU199
	.loc 1 290 14 is_stmt 0 view .LVU200
	subs	r3, r7, #1
	mov	r8, r3
	.loc 1 293 17 view .LVU201
	ldr	r3, .L71+4
	.loc 1 290 18 view .LVU202
	movs	r4, #4
	.loc 1 293 17 view .LVU203
	mov	r9, r3
.LVL88:
.L65:
	.loc 1 291 13 is_stmt 1 view .LVU204
	lsls	r3, r4, #2
	ldr	r1, [r5, r3]
	movs	r0, r6
	bl	strcat
.LVL89:
	.loc 1 292 13 view .LVU205
	.loc 1 292 16 is_stmt 0 view .LVU206
	cmp	r8, r4
	beq	.L64
	.loc 1 293 17 is_stmt 1 view .LVU207
	movs	r0, r6
	bl	strlen
.LVL90:
	movs	r2, #2
	adds	r0, r6, r0
	mov	r1, r9
	bl	memcpy
.LVL91:
.L64:
	.loc 1 290 40 is_stmt 0 discriminator 2 view .LVU208
	adds	r4, r4, #1
.LVL92:
	.loc 1 290 9 discriminator 2 view .LVU209
	cmp	r7, r4
	bne	.L65
.LBE17:
	.loc 1 297 9 is_stmt 1 view .LVU210
	ldr	r0, [sp]
	mov	r3, r10
	movs	r2, r6
	ldr	r1, [sp, #4]
	bl	oled_display_string
.LVL93:
	.loc 1 298 9 view .LVU211
	.loc 1 298 16 is_stmt 0 view .LVU212
	movs	r0, #0
	b	.L61
.L72:
	.align	2
.L71:
	.word	.LANCHOR0
	.word	.LC30
.LBE18:
	.cfi_endproc
.LFE15:
	.size	cb_txt_text, .-cb_txt_text
	.section	.text.cb_txt_draw,"ax",%progbits
	.align	1
	.p2align 2,,3
	.global	cb_txt_draw
	.syntax unified
	.code	16
	.thumb_func
	.fpu softvfp
	.type	cb_txt_draw, %function
cb_txt_draw:
.LVL94:
.LFB16:
	.loc 1 305 44 is_stmt 1 view -0
	.cfi_startproc
	@ args = 0, pretend = 0, frame = 16
	@ frame_needed = 0, uses_anonymous_args = 0
	.loc 1 306 5 view .LVU214
	.loc 1 305 44 is_stmt 0 view .LVU215
	push	{r4, r5, r6, r7, lr}
	.cfi_def_cfa_offset 20
	.cfi_offset 4, -20
	.cfi_offset 5, -16
	.cfi_offset 6, -12
	.cfi_offset 7, -8
	.cfi_offset 14, -4
	movs	r5, r0
	sub	sp, sp, #28
	.cfi_def_cfa_offset 48
	.loc 1 305 44 view .LVU216
	movs	r6, r1
	.loc 1 306 8 view .LVU217
	cmp	r1, #1
	ble	.L86
	.loc 1 307 9 is_stmt 1 view .LVU218
	.loc 1 307 13 is_stmt 0 view .LVU219
	ldr	r7, [r0, #4]
	movs	r2, #5
	ldr	r1, .L91
.LVL95:
	.loc 1 307 13 view .LVU220
	movs	r0, r7
.LVL96:
	.loc 1 307 13 view .LVU221
	bl	strncasecmp
.LVL97:
	subs	r4, r0, #0
	.loc 1 307 12 view .LVU222
	beq	.L88
	.loc 1 319 9 is_stmt 1 view .LVU223
	.loc 1 319 13 is_stmt 0 view .LVU224
	movs	r2, #4
	ldr	r1, .L91+4
	movs	r0, r7
	bl	strncasecmp
.LVL98:
	subs	r4, r0, #0
	.loc 1 319 12 view .LVU225
	bne	.L77
.LBB19:
	.loc 1 320 13 is_stmt 1 view .LVU226
	.loc 1 320 16 is_stmt 0 view .LVU227
	cmp	r6, #6
	bgt	.L89
.L86:
.LBE19:
	.loc 1 361 12 view .LVU228
	movs	r4, #1
	rsbs	r4, r4, #0
.L73:
	.loc 1 362 1 view .LVU229
	movs	r0, r4
	add	sp, sp, #28
	@ sp needed
.LVL99:
.LVL100:
	.loc 1 362 1 view .LVU230
	pop	{r4, r5, r6, r7, pc}
.LVL101:
.L88:
.LBB20:
	.loc 1 308 13 is_stmt 1 view .LVU231
	.loc 1 308 16 is_stmt 0 view .LVU232
	cmp	r6, #4
	ble	.L86
	.loc 1 311 13 is_stmt 1 view .LVU233
	.loc 1 312 13 view .LVU234
	movs	r0, r5
	add	r1, sp, #16
	adds	r0, r0, #8
	bl	xatoi
.LVL102:
	.loc 1 313 13 view .LVU235
	movs	r0, r5
	add	r1, sp, #20
	adds	r0, r0, #12
	bl	xatoi
.LVL103:
	.loc 1 314 13 view .LVU236
	.loc 1 314 32 is_stmt 0 view .LVU237
	ldr	r0, [r5, #16]
	bl	oled_color_from_string
.LVL104:
	.loc 1 315 13 view .LVU238
	ldr	r1, [sp, #20]
	.loc 1 314 32 view .LVU239
	movs	r2, r0
.LVL105:
	.loc 1 315 13 is_stmt 1 view .LVU240
	ldr	r0, [sp, #16]
	bl	oled_draw_point
.LVL106:
	.loc 1 316 13 view .LVU241
	.loc 1 316 20 is_stmt 0 view .LVU242
	b	.L73
.L77:
	.loc 1 316 20 view .LVU243
.LBE20:
	.loc 1 333 9 is_stmt 1 view .LVU244
	.loc 1 333 13 is_stmt 0 view .LVU245
	movs	r2, #6
	ldr	r1, .L91+8
	movs	r0, r7
	bl	strncasecmp
.LVL107:
	subs	r4, r0, #0
	.loc 1 333 12 view .LVU246
	beq	.L90
	.loc 1 346 9 is_stmt 1 view .LVU247
	.loc 1 346 13 is_stmt 0 view .LVU248
	movs	r2, #9
	ldr	r1, .L91+12
	movs	r0, r7
	bl	strncasecmp
.LVL108:
	subs	r4, r0, #0
	.loc 1 346 12 view .LVU249
	bne	.L86
.LBB21:
	.loc 1 347 13 is_stmt 1 view .LVU250
	.loc 1 347 16 is_stmt 0 view .LVU251
	cmp	r6, #6
	ble	.L86
	.loc 1 350 13 is_stmt 1 view .LVU252
	.loc 1 351 13 view .LVU253
	movs	r0, r5
	add	r1, sp, #8
	adds	r0, r0, #8
	bl	xatoi
.LVL109:
	.loc 1 352 13 view .LVU254
	movs	r0, r5
	add	r1, sp, #12
	adds	r0, r0, #12
	bl	xatoi
.LVL110:
	.loc 1 353 13 view .LVU255
	movs	r0, r5
	add	r1, sp, #16
	adds	r0, r0, #16
	bl	xatoi
.LVL111:
	.loc 1 354 13 view .LVU256
	movs	r0, r5
	add	r1, sp, #20
	adds	r0, r0, #20
	bl	xatoi
.LVL112:
	.loc 1 355 13 view .LVU257
	.loc 1 355 32 is_stmt 0 view .LVU258
	ldr	r0, [r5, #24]
	bl	oled_color_from_string
.LVL113:
	.loc 1 356 13 is_stmt 1 view .LVU259
	ldr	r3, [sp, #20]
	str	r0, [sp]
	ldr	r2, [sp, #16]
	ldr	r1, [sp, #12]
	ldr	r0, [sp, #8]
.LVL114:
	.loc 1 356 13 is_stmt 0 view .LVU260
	bl	oled_draw_rectangle
.LVL115:
	.loc 1 357 13 is_stmt 1 view .LVU261
	.loc 1 357 20 is_stmt 0 view .LVU262
	b	.L73
.L90:
	.loc 1 357 20 view .LVU263
.LBE21:
.LBB22:
	.loc 1 334 13 is_stmt 1 view .LVU264
	.loc 1 334 16 is_stmt 0 view .LVU265
	cmp	r6, #4
	ble	.L86
	.loc 1 337 13 is_stmt 1 view .LVU266
	.loc 1 338 13 view .LVU267
	movs	r0, r5
	add	r1, sp, #12
	adds	r0, r0, #8
	bl	xatoi
.LVL116:
	.loc 1 339 13 view .LVU268
	movs	r0, r5
	add	r1, sp, #16
	adds	r0, r0, #12
	bl	xatoi
.LVL117:
	.loc 1 340 13 view .LVU269
	movs	r0, r5
	add	r1, sp, #20
	adds	r0, r0, #16
	bl	xatoi
.LVL118:
	.loc 1 341 13 view .LVU270
	.loc 1 341 32 is_stmt 0 view .LVU271
	ldr	r0, [r5, #20]
	bl	oled_color_from_string
.LVL119:
	.loc 1 342 13 view .LVU272
	ldr	r2, [sp, #20]
	.loc 1 341 32 view .LVU273
	movs	r3, r0
.LVL120:
	.loc 1 342 13 is_stmt 1 view .LVU274
	ldr	r1, [sp, #16]
	ldr	r0, [sp, #12]
	bl	oled_draw_circle
.LVL121:
	.loc 1 343 13 view .LVU275
	.loc 1 343 20 is_stmt 0 view .LVU276
	b	.L73
.L89:
	.loc 1 343 20 view .LVU277
.LBE22:
.LBB23:
	.loc 1 323 13 is_stmt 1 view .LVU278
	.loc 1 324 13 view .LVU279
	movs	r0, r5
	add	r1, sp, #8
	adds	r0, r0, #8
	bl	xatoi
.LVL122:
	.loc 1 325 13 view .LVU280
	movs	r0, r5
	add	r1, sp, #12
	adds	r0, r0, #12
	bl	xatoi
.LVL123:
	.loc 1 326 13 view .LVU281
	movs	r0, r5
	add	r1, sp, #16
	adds	r0, r0, #16
	bl	xatoi
.LVL124:
	.loc 1 327 13 view .LVU282
	movs	r0, r5
	add	r1, sp, #20
	adds	r0, r0, #20
	bl	xatoi
.LVL125:
	.loc 1 328 13 view .LVU283
	.loc 1 328 32 is_stmt 0 view .LVU284
	ldr	r0, [r5, #24]
	bl	oled_color_from_string
.LVL126:
	.loc 1 329 13 is_stmt 1 view .LVU285
	ldr	r3, [sp, #20]
	str	r0, [sp]
	ldr	r2, [sp, #16]
	ldr	r1, [sp, #12]
	ldr	r0, [sp, #8]
.LVL127:
	.loc 1 329 13 is_stmt 0 view .LVU286
	bl	oled_draw_line
.LVL128:
	.loc 1 330 13 is_stmt 1 view .LVU287
	.loc 1 330 20 is_stmt 0 view .LVU288
	b	.L73
.L92:
	.align	2
.L91:
	.word	.LC32
	.word	.LC34
	.word	.LC36
	.word	.LC38
.LBE23:
	.cfi_endproc
.LFE16:
	.size	cb_txt_draw, .-cb_txt_draw
	.section	.text.print_adc,"ax",%progbits
	.align	1
	.p2align 2,,3
	.syntax unified
	.code	16
	.thumb_func
	.fpu softvfp
	.type	print_adc, %function
print_adc:
.LVL129:
.LFB17:
	.loc 1 364 36 is_stmt 1 view -0
	.cfi_startproc
	@ args = 0, pretend = 0, frame = 0
	@ frame_needed = 0, uses_anonymous_args = 0
	.loc 1 365 5 view .LVU290
	.loc 1 364 36 is_stmt 0 view .LVU291
	push	{r4, lr}
	.cfi_def_cfa_offset 8
	.cfi_offset 4, -8
	.cfi_offset 14, -4
	.loc 1 364 36 view .LVU292
	movs	r4, r0
	.loc 1 365 15 view .LVU293
	bl	adc_get_value
.LVL130:
	.loc 1 366 5 view .LVU294
	movs	r1, r4
	.loc 1 365 15 view .LVU295
	movs	r2, r0
.LVL131:
	.loc 1 366 5 is_stmt 1 view .LVU296
	ldr	r0, .L94
.LVL132:
	.loc 1 366 5 is_stmt 0 view .LVU297
	bl	xprintf
.LVL133:
	.loc 1 367 1 view .LVU298
	@ sp needed
.LVL134:
	.loc 1 367 1 view .LVU299
	pop	{r4, pc}
.L95:
	.align	2
.L94:
	.word	.LC40
	.cfi_endproc
.LFE17:
	.size	print_adc, .-print_adc
	.section	.text.print_voltage,"ax",%progbits
	.align	1
	.p2align 2,,3
	.syntax unified
	.code	16
	.thumb_func
	.fpu softvfp
	.type	print_voltage, %function
print_voltage:
.LVL135:
.LFB19:
	.loc 1 389 40 is_stmt 1 view -0
	.cfi_startproc
	@ args = 0, pretend = 0, frame = 0
	@ frame_needed = 0, uses_anonymous_args = 0
	.loc 1 390 5 view .LVU301
	.loc 1 389 40 is_stmt 0 view .LVU302
	push	{r4, lr}
	.cfi_def_cfa_offset 8
	.cfi_offset 4, -8
	.cfi_offset 14, -4
	.loc 1 389 40 view .LVU303
	movs	r4, r0
	.loc 1 390 17 view .LVU304
	bl	adc_get_voltage
.LVL136:
	.loc 1 391 5 view .LVU305
	movs	r1, r4
	.loc 1 390 17 view .LVU306
	movs	r2, r0
.LVL137:
	.loc 1 391 5 is_stmt 1 view .LVU307
	ldr	r0, .L97
.LVL138:
	.loc 1 391 5 is_stmt 0 view .LVU308
	bl	xprintf
.LVL139:
	.loc 1 392 1 view .LVU309
	@ sp needed
.LVL140:
	.loc 1 392 1 view .LVU310
	pop	{r4, pc}
.L98:
	.align	2
.L97:
	.word	.LC40
	.cfi_endproc
.LFE19:
	.size	print_voltage, .-print_voltage
	.section	.text.cb_txt_lthor,"ax",%progbits
	.align	1
	.p2align 2,,3
	.global	cb_txt_lthor
	.syntax unified
	.code	16
	.thumb_func
	.fpu softvfp
	.type	cb_txt_lthor, %function
cb_txt_lthor:
.LVL141:
.LFB22:
	.loc 1 437 45 is_stmt 1 view -0
	.cfi_startproc
	@ args = 0, pretend = 0, frame = 0
	@ frame_needed = 0, uses_anonymous_args = 0
	.loc 1 438 5 view .LVU312
	.loc 1 437 45 is_stmt 0 view .LVU313
	push	{r3, r4, r5, r6, r7, lr}
	.cfi_def_cfa_offset 24
	.cfi_offset 3, -24
	.cfi_offset 4, -20
	.cfi_offset 5, -16
	.cfi_offset 6, -12
	.cfi_offset 7, -8
	.cfi_offset 14, -4
	.loc 1 437 45 view .LVU314
	movs	r7, r0
	movs	r6, r1
	.loc 1 438 8 view .LVU315
	cmp	r1, #1
	ble	.L109
	.loc 1 439 9 is_stmt 1 view .LVU316
	.loc 1 439 13 is_stmt 0 view .LVU317
	ldr	r5, [r0, #4]
	movs	r2, #6
	movs	r1, r5
.LVL142:
	.loc 1 439 13 view .LVU318
	ldr	r0, .L113
.LVL143:
	.loc 1 439 13 view .LVU319
	bl	strncasecmp
.LVL144:
	subs	r4, r0, #0
	.loc 1 439 12 view .LVU320
	beq	.L110
	.loc 1 446 16 is_stmt 1 view .LVU321
	.loc 1 446 20 is_stmt 0 view .LVU322
	movs	r2, #2
	movs	r1, r5
	ldr	r0, .L113+4
	bl	strncasecmp
.LVL145:
	subs	r4, r0, #0
	.loc 1 446 19 view .LVU323
	beq	.L111
	.loc 1 453 16 is_stmt 1 view .LVU324
	.loc 1 453 20 is_stmt 0 view .LVU325
	movs	r2, #4
	movs	r1, r5
	ldr	r0, .L113+8
	bl	strncasecmp
.LVL146:
	subs	r4, r0, #0
	.loc 1 453 19 view .LVU326
	beq	.L112
	.loc 1 460 16 is_stmt 1 view .LVU327
	.loc 1 460 20 is_stmt 0 view .LVU328
	movs	r2, #4
	movs	r1, r5
	ldr	r0, .L113+12
	bl	strncasecmp
.LVL147:
	subs	r4, r0, #0
	.loc 1 460 19 view .LVU329
	bne	.L109
	.loc 1 461 13 is_stmt 1 view .LVU330
	.loc 1 461 16 is_stmt 0 view .LVU331
	cmp	r6, #2
	beq	.L109
	.loc 1 462 17 is_stmt 1 view .LVU332
	ldr	r0, [r7, #8]
	bl	lthor_state_from_string
.LVL148:
	bl	lthor_do_combo
.LVL149:
	.loc 1 463 17 view .LVU333
.L99:
	.loc 1 469 1 is_stmt 0 view .LVU334
	movs	r0, r4
	@ sp needed
.LVL150:
.LVL151:
	.loc 1 469 1 view .LVU335
	pop	{r3, r4, r5, r6, r7, pc}
.LVL152:
.L111:
	.loc 1 447 13 is_stmt 1 view .LVU336
	.loc 1 447 16 is_stmt 0 view .LVU337
	cmp	r6, #2
	beq	.L104
	.loc 1 448 17 is_stmt 1 view .LVU338
	ldr	r0, [r7, #8]
	bl	lthor_state_from_string
.LVL153:
	bl	lthor_id_set_state
.LVL154:
	b	.L99
.L110:
	.loc 1 440 13 view .LVU339
	.loc 1 440 16 is_stmt 0 view .LVU340
	cmp	r6, #2
	beq	.L102
	.loc 1 441 17 is_stmt 1 view .LVU341
	ldr	r0, [r7, #8]
	bl	lthor_state_from_string
.LVL155:
	bl	lthor_switch_set_state
.LVL156:
	b	.L99
.L102:
	.loc 1 443 17 view .LVU342
	bl	lthor_switch_get_state
.LVL157:
	bl	lthor_state_to_string
.LVL158:
	movs	r1, r0
	ldr	r0, .L113+16
	bl	xprintf
.LVL159:
	b	.L99
.L104:
	.loc 1 450 17 view .LVU343
	bl	lthor_id_get_state
.LVL160:
	bl	lthor_state_to_string
.LVL161:
	movs	r1, r0
	ldr	r0, .L113+16
	bl	xprintf
.LVL162:
	b	.L99
.L112:
	.loc 1 454 13 view .LVU344
	.loc 1 454 16 is_stmt 0 view .LVU345
	cmp	r6, #2
	beq	.L106
	.loc 1 455 17 is_stmt 1 view .LVU346
	ldr	r0, [r7, #8]
	bl	power_state_from_string
.LVL163:
	bl	lthor_vbus_set_state
.LVL164:
	b	.L99
.L106:
	.loc 1 457 17 view .LVU347
	bl	lthor_vbus_get_state
.LVL165:
	bl	power_state_to_string
.LVL166:
	movs	r1, r0
	ldr	r0, .L113+16
	bl	xprintf
.LVL167:
	b	.L99
.L109:
	.loc 1 468 12 is_stmt 0 view .LVU348
	movs	r4, #1
	rsbs	r4, r4, #0
	b	.L99
.L114:
	.align	2
.L113:
	.word	.LC43
	.word	.LC46
	.word	.LC48
	.word	.LC50
	.word	.LC21
	.cfi_endproc
.LFE22:
	.size	cb_txt_lthor, .-cb_txt_lthor
	.section	.text.display_key_state,"ax",%progbits
	.align	1
	.p2align 2,,3
	.syntax unified
	.code	16
	.thumb_func
	.fpu softvfp
	.type	display_key_state, %function
display_key_state:
.LVL168:
.LFB23:
	.loc 1 471 44 is_stmt 1 view -0
	.cfi_startproc
	@ args = 0, pretend = 0, frame = 0
	@ frame_needed = 0, uses_anonymous_args = 0
	.loc 1 472 4 view .LVU350
	.loc 1 471 44 is_stmt 0 view .LVU351
	push	{r4, lr}
	.cfi_def_cfa_offset 8
	.cfi_offset 4, -8
	.cfi_offset 14, -4
	.loc 1 472 52 view .LVU352
	cmp	r0, #1
	beq	.L120
	.loc 1 472 54 discriminator 2 view .LVU353
	bl	keys_is_2_pressed
.LVL169:
.L117:
	.loc 1 473 5 is_stmt 1 discriminator 4 view .LVU354
	cmp	r0, #0
	bne	.L119
	.loc 1 473 5 is_stmt 0 view .LVU355
	ldr	r1, .L121
.L118:
	.loc 1 473 5 discriminator 4 view .LVU356
	ldr	r0, .L121+4
.LVL170:
	.loc 1 473 5 discriminator 4 view .LVU357
	bl	xprintf
.LVL171:
	.loc 1 474 1 discriminator 4 view .LVU358
	@ sp needed
	pop	{r4, pc}
.LVL172:
.L119:
	.loc 1 473 5 view .LVU359
	ldr	r1, .L121+8
	b	.L118
.LVL173:
.L120:
	.loc 1 472 32 discriminator 1 view .LVU360
	bl	keys_is_1_pressed
.LVL174:
	.loc 1 472 32 discriminator 1 view .LVU361
	b	.L117
.L122:
	.align	2
.L121:
	.word	.LC54
	.word	.LC21
	.word	.LC52
	.cfi_endproc
.LFE23:
	.size	display_key_state, .-display_key_state
	.section	.text.cb_txt_mux,"ax",%progbits
	.align	1
	.p2align 2,,3
	.global	cb_txt_mux
	.syntax unified
	.code	16
	.thumb_func
	.fpu softvfp
	.type	cb_txt_mux, %function
cb_txt_mux:
.LVL175:
.LFB9:
	.loc 1 199 43 is_stmt 1 view -0
	.cfi_startproc
	@ args = 0, pretend = 0, frame = 0
	@ frame_needed = 0, uses_anonymous_args = 0
	.loc 1 200 5 view .LVU363
	.loc 1 199 43 is_stmt 0 view .LVU364
	push	{r4, r5, r6, lr}
	.cfi_def_cfa_offset 16
	.cfi_offset 4, -16
	.cfi_offset 5, -12
	.cfi_offset 6, -8
	.cfi_offset 14, -4
	.loc 1 200 8 view .LVU365
	cmp	r1, #1
	ble	.L124
	.loc 1 201 9 is_stmt 1 view .LVU366
	.loc 1 201 13 is_stmt 0 view .LVU367
	ldr	r5, [r0, #4]
	movs	r2, #2
	movs	r1, r5
.LVL176:
	.loc 1 201 13 view .LVU368
	ldr	r0, .L132
.LVL177:
	.loc 1 201 13 view .LVU369
	bl	strncasecmp
.LVL178:
	subs	r4, r0, #0
	.loc 1 201 12 view .LVU370
	beq	.L131
	.loc 1 203 16 is_stmt 1 view .LVU371
	.loc 1 203 19 is_stmt 0 view .LVU372
	movs	r2, #3
	movs	r1, r5
	ldr	r0, .L132+4
	bl	strncasecmp
.LVL179:
	subs	r4, r0, #0
	.loc 1 203 18 view .LVU373
	bne	.L128
	.loc 1 204 13 is_stmt 1 view .LVU374
	movs	r0, #0
	bl	mux_set_state
.LVL180:
.L123:
	.loc 1 214 1 is_stmt 0 view .LVU375
	movs	r0, r4
	@ sp needed
	pop	{r4, r5, r6, pc}
.L131:
	.loc 1 202 13 is_stmt 1 view .LVU376
	movs	r0, #1
	bl	mux_set_state
.LVL181:
	b	.L123
.LVL182:
.L124:
.LBB27:
.LBI27:
	.loc 1 199 5 view .LVU377
.LBB28:
	.loc 1 209 9 view .LVU378
	.loc 1 209 27 is_stmt 0 view .LVU379
	bl	mux_get_state
.LVL183:
	.loc 1 210 9 is_stmt 1 view .LVU380
	cmp	r0, #1
	beq	.L129
	.loc 1 210 40 is_stmt 0 view .LVU381
	cmp	r0, #0
	beq	.L130
	ldr	r0, .L132+8
.LVL184:
.L127:
	.loc 1 210 9 view .LVU382
	bl	xprintf
.LVL185:
	.loc 1 210 9 view .LVU383
	movs	r4, #0
	b	.L123
.LVL186:
.L129:
	.loc 1 210 9 view .LVU384
	ldr	r0, .L132
.LVL187:
	.loc 1 210 9 view .LVU385
	b	.L127
.LVL188:
.L130:
	.loc 1 210 40 view .LVU386
	ldr	r0, .L132+4
.LVL189:
	.loc 1 210 40 view .LVU387
	b	.L127
.LVL190:
.L128:
	.loc 1 210 40 view .LVU388
.LBE28:
.LBE27:
	.loc 1 206 20 view .LVU389
	movs	r4, #1
	rsbs	r4, r4, #0
	b	.L123
.L133:
	.align	2
.L132:
	.word	.LC57
	.word	.LC59
	.word	.LC61
	.cfi_endproc
.LFE9:
	.size	cb_txt_mux, .-cb_txt_mux
	.section	.text.cb_txt_led,"ax",%progbits
	.align	1
	.p2align 2,,3
	.global	cb_txt_led
	.syntax unified
	.code	16
	.thumb_func
	.fpu softvfp
	.type	cb_txt_led, %function
cb_txt_led:
.LVL191:
.LFB13:
	.loc 1 240 43 is_stmt 1 view -0
	.cfi_startproc
	@ args = 0, pretend = 0, frame = 16
	@ frame_needed = 0, uses_anonymous_args = 0
	.loc 1 241 5 view .LVU391
	.loc 1 240 43 is_stmt 0 view .LVU392
	push	{r4, r5, lr}
	.cfi_def_cfa_offset 12
	.cfi_offset 4, -12
	.cfi_offset 5, -8
	.cfi_offset 14, -4
	movs	r4, r0
	sub	sp, sp, #20
	.cfi_def_cfa_offset 32
	.loc 1 240 43 view .LVU393
	movs	r5, r1
	.loc 1 241 8 view .LVU394
	cmp	r1, #1
	ble	.L135
.LVL192:
.LBB33:
.LBI33:
	.loc 1 240 5 is_stmt 1 view .LVU395
.LBB34:
.LBB35:
	.loc 1 242 9 view .LVU396
	.loc 1 243 9 view .LVU397
	adds	r0, r0, #4
.LVL193:
	.loc 1 243 9 is_stmt 0 view .LVU398
	mov	r1, sp
.LVL194:
	.loc 1 243 9 view .LVU399
	bl	xatoi
.LVL195:
	.loc 1 244 9 is_stmt 1 view .LVU400
	.loc 1 244 25 is_stmt 0 view .LVU401
	ldr	r3, [sp]
	subs	r0, r3, #1
	.loc 1 244 12 view .LVU402
	cmp	r0, #1
	bhi	.L136
	.loc 1 247 9 is_stmt 1 view .LVU403
	.loc 1 247 16 is_stmt 0 view .LVU404
	str	r0, [sp]
	.loc 1 248 9 is_stmt 1 view .LVU405
	.loc 1 248 12 is_stmt 0 view .LVU406
	cmp	r5, #2
	beq	.L141
	.loc 1 250 16 is_stmt 1 view .LVU407
	.loc 1 250 19 is_stmt 0 view .LVU408
	cmp	r5, #5
	bne	.L136
.LBB36:
	.loc 1 251 13 is_stmt 1 view .LVU409
	.loc 1 252 13 view .LVU410
	movs	r0, r4
	add	r1, sp, #4
	adds	r0, r0, #8
	bl	xatoi
.LVL196:
	.loc 1 253 13 view .LVU411
	movs	r0, r4
	add	r1, sp, #8
	adds	r0, r0, #12
	bl	xatoi
.LVL197:
	.loc 1 254 13 view .LVU412
	movs	r0, r4
	add	r1, sp, #12
	adds	r0, r0, #16
	bl	xatoi
.LVL198:
	.loc 1 255 13 view .LVU413
	ldr	r3, [sp, #12]
	ldr	r2, [sp, #8]
	ldr	r1, [sp, #4]
	ldr	r0, [sp]
	bl	led_set_color
.LVL199:
.L140:
	.loc 1 255 13 is_stmt 0 view .LVU414
.LBE36:
.LBE35:
.LBE34:
.LBE33:
	.loc 1 264 12 view .LVU415
	movs	r0, #0
.L134:
	.loc 1 265 1 view .LVU416
	add	sp, sp, #20
	@ sp needed
.LVL200:
.LVL201:
	.loc 1 265 1 view .LVU417
	pop	{r4, r5, pc}
.LVL202:
.L135:
	.loc 1 260 9 is_stmt 1 view .LVU418
	movs	r0, #0
.LVL203:
	.loc 1 260 9 is_stmt 0 view .LVU419
	bl	print_color
.LVL204:
	.loc 1 261 9 is_stmt 1 view .LVU420
	movs	r0, #1
.L141:
	bl	print_color
.LVL205:
	b	.L140
.LVL206:
.L136:
.LBB39:
.LBB38:
.LBB37:
	.loc 1 245 20 is_stmt 0 view .LVU421
	movs	r0, #1
	rsbs	r0, r0, #0
	b	.L134
.LBE37:
.LBE38:
.LBE39:
	.cfi_endproc
.LFE13:
	.size	cb_txt_led, .-cb_txt_led
	.section	.text.cb_txt_adc,"ax",%progbits
	.align	1
	.p2align 2,,3
	.global	cb_txt_adc
	.syntax unified
	.code	16
	.thumb_func
	.fpu softvfp
	.type	cb_txt_adc, %function
cb_txt_adc:
.LVL207:
.LFB18:
	.loc 1 369 43 is_stmt 1 view -0
	.cfi_startproc
	@ args = 0, pretend = 0, frame = 8
	@ frame_needed = 0, uses_anonymous_args = 0
	.loc 1 370 5 view .LVU423
	.loc 1 369 43 is_stmt 0 view .LVU424
	push	{lr}
	.cfi_def_cfa_offset 4
	.cfi_offset 14, -4
	sub	sp, sp, #12
	.cfi_def_cfa_offset 16
	.loc 1 370 8 view .LVU425
	cmp	r1, #1
	ble	.L143
.LBB44:
	.loc 1 371 9 is_stmt 1 view .LVU426
	.loc 1 372 9 view .LVU427
	adds	r0, r0, #4
.LVL208:
	.loc 1 372 9 is_stmt 0 view .LVU428
	add	r1, sp, #4
.LVL209:
	.loc 1 372 9 view .LVU429
	bl	xatoi
.LVL210:
	.loc 1 373 9 is_stmt 1 view .LVU430
	.loc 1 373 25 is_stmt 0 view .LVU431
	ldr	r0, [sp, #4]
	.loc 1 373 12 view .LVU432
	cmp	r0, #5
	bhi	.L146
	.loc 1 376 9 is_stmt 1 view .LVU433
	bl	print_adc
.LVL211:
.LBE44:
	.loc 1 386 12 is_stmt 0 view .LVU434
	movs	r0, #0
.L142:
	.loc 1 387 1 view .LVU435
	add	sp, sp, #12
	@ sp needed
	pop	{pc}
.LVL212:
.L143:
.LBB45:
.LBI45:
	.loc 1 369 5 is_stmt 1 view .LVU436
.LBB46:
	.loc 1 378 9 view .LVU437
	movs	r0, #1
.LVL213:
	.loc 1 378 9 is_stmt 0 view .LVU438
	bl	print_adc
.LVL214:
	.loc 1 379 9 is_stmt 1 view .LVU439
	movs	r0, #2
	bl	print_adc
.LVL215:
	.loc 1 380 9 view .LVU440
	movs	r0, #3
	bl	print_adc
.LVL216:
	.loc 1 381 9 view .LVU441
	movs	r0, #4
	bl	print_adc
.LVL217:
	.loc 1 382 9 view .LVU442
	movs	r0, #5
	bl	print_adc
.LVL218:
	.loc 1 383 9 view .LVU443
	.loc 1 383 35 is_stmt 0 view .LVU444
	ldr	r3, .L147
	.loc 1 383 9 view .LVU445
	ldr	r0, .L147+4
	.loc 1 383 35 view .LVU446
	ldrh	r1, [r3]
	uxth	r1, r1
	.loc 1 383 9 view .LVU447
	bl	xprintf
.LVL219:
	.loc 1 383 9 view .LVU448
	movs	r0, #0
	b	.L142
.L146:
.LBE46:
.LBE45:
.LBB47:
	.loc 1 374 13 is_stmt 1 view .LVU449
	.loc 1 374 20 is_stmt 0 view .LVU450
	movs	r0, #1
	rsbs	r0, r0, #0
	b	.L142
.L148:
	.align	2
.L147:
	.word	536868794
	.word	.LC63
.LBE47:
	.cfi_endproc
.LFE18:
	.size	cb_txt_adc, .-cb_txt_adc
	.section	.text.cb_txt_voltage,"ax",%progbits
	.align	1
	.p2align 2,,3
	.global	cb_txt_voltage
	.syntax unified
	.code	16
	.thumb_func
	.fpu softvfp
	.type	cb_txt_voltage, %function
cb_txt_voltage:
.LVL220:
.LFB20:
	.loc 1 394 47 is_stmt 1 view -0
	.cfi_startproc
	@ args = 0, pretend = 0, frame = 8
	@ frame_needed = 0, uses_anonymous_args = 0
	.loc 1 395 5 view .LVU452
	.loc 1 394 47 is_stmt 0 view .LVU453
	push	{lr}
	.cfi_def_cfa_offset 4
	.cfi_offset 14, -4
	sub	sp, sp, #12
	.cfi_def_cfa_offset 16
	.loc 1 395 8 view .LVU454
	cmp	r1, #1
	ble	.L150
.LBB52:
	.loc 1 396 9 is_stmt 1 view .LVU455
	.loc 1 397 9 view .LVU456
	adds	r0, r0, #4
.LVL221:
	.loc 1 397 9 is_stmt 0 view .LVU457
	add	r1, sp, #4
.LVL222:
	.loc 1 397 9 view .LVU458
	bl	xatoi
.LVL223:
	.loc 1 398 9 is_stmt 1 view .LVU459
	.loc 1 398 25 is_stmt 0 view .LVU460
	ldr	r0, [sp, #4]
	.loc 1 398 12 view .LVU461
	cmp	r0, #5
	bhi	.L154
.L153:
.LBE52:
.LBB53:
.LBB54:
	.loc 1 406 9 view .LVU462
	bl	print_voltage
.LVL224:
	movs	r0, #0
.L149:
.LBE54:
.LBE53:
	.loc 1 410 1 view .LVU463
	add	sp, sp, #12
	@ sp needed
	pop	{pc}
.LVL225:
.L150:
.LBB56:
.LBI53:
	.loc 1 394 5 is_stmt 1 view .LVU464
.LBB55:
	.loc 1 403 9 view .LVU465
	movs	r0, #1
.LVL226:
	.loc 1 403 9 is_stmt 0 view .LVU466
	bl	print_voltage
.LVL227:
	.loc 1 404 9 is_stmt 1 view .LVU467
	movs	r0, #2
	bl	print_voltage
.LVL228:
	.loc 1 405 9 view .LVU468
	movs	r0, #3
	bl	print_voltage
.LVL229:
	.loc 1 406 9 view .LVU469
	movs	r0, #4
	b	.L153
.LVL230:
.L154:
	.loc 1 406 9 is_stmt 0 view .LVU470
.LBE55:
.LBE56:
.LBB57:
	.loc 1 399 13 is_stmt 1 view .LVU471
	.loc 1 399 20 is_stmt 0 view .LVU472
	movs	r0, #1
	rsbs	r0, r0, #0
	b	.L149
.LBE57:
	.cfi_endproc
.LFE20:
	.size	cb_txt_voltage, .-cb_txt_voltage
	.section	.text.cb_txt_current,"ax",%progbits
	.align	1
	.p2align 2,,3
	.global	cb_txt_current
	.syntax unified
	.code	16
	.thumb_func
	.fpu softvfp
	.type	cb_txt_current, %function
cb_txt_current:
.LVL231:
.LFB21:
	.loc 1 412 47 is_stmt 1 view -0
	.cfi_startproc
	@ args = 0, pretend = 0, frame = 8
	@ frame_needed = 0, uses_anonymous_args = 0
	.loc 1 416 10 is_stmt 0 view .LVU474
	movs	r3, #0
	.loc 1 412 47 view .LVU475
	push	{r4, r5, lr}
	.cfi_def_cfa_offset 12
	.cfi_offset 4, -12
	.cfi_offset 5, -8
	.cfi_offset 14, -4
	sub	sp, sp, #12
	.cfi_def_cfa_offset 24
	.loc 1 412 47 view .LVU476
	movs	r5, r0
	.loc 1 413 5 is_stmt 1 view .LVU477
	.loc 1 414 5 view .LVU478
	.loc 1 416 5 view .LVU479
	.loc 1 416 10 is_stmt 0 view .LVU480
	str	r3, [sp, #4]
	.loc 1 417 5 is_stmt 1 view .LVU481
	.loc 1 417 8 is_stmt 0 view .LVU482
	cmp	r1, #1
	ble	.L156
	.loc 1 418 9 is_stmt 1 view .LVU483
	.loc 1 418 13 is_stmt 0 view .LVU484
	ldr	r1, [r0, #4]
.LVL232:
	.loc 1 418 13 view .LVU485
	movs	r2, #4
	ldr	r0, .L164
.LVL233:
	.loc 1 418 13 view .LVU486
	bl	strncasecmp
.LVL234:
	subs	r4, r0, #0
	.loc 1 418 12 view .LVU487
	beq	.L163
	.loc 1 421 16 is_stmt 1 view .LVU488
	.loc 1 421 21 is_stmt 0 view .LVU489
	adds	r0, r5, #4
	add	r1, sp, #4
	bl	xatoi
.LVL235:
	.loc 1 421 19 view .LVU490
	cmp	r0, #0
	beq	.L162
	.loc 1 424 9 is_stmt 1 view .LVU491
	ldr	r0, [sp, #4]
	bl	state_set_idle_current
.LVL236:
	ldr	r1, [sp, #4]
.L159:
	.loc 1 432 5 view .LVU492
	ldr	r0, .L164+4
	bl	xprintf
.LVL237:
	.loc 1 434 5 view .LVU493
	.loc 1 434 12 is_stmt 0 view .LVU494
	movs	r4, #0
.L155:
	.loc 1 435 1 view .LVU495
	movs	r0, r4
	add	sp, sp, #12
	@ sp needed
.LVL238:
	.loc 1 435 1 view .LVU496
	pop	{r4, r5, pc}
.LVL239:
.L163:
.LBB60:
.LBI60:
	.loc 1 412 5 is_stmt 1 view .LVU497
.LBB61:
	.loc 1 419 13 view .LVU498
	bl	adc_get_current
.LVL240:
	bl	state_set_idle_current
.LVL241:
	.loc 1 420 13 view .LVU499
	.loc 1 420 13 is_stmt 0 view .LVU500
	b	.L155
.LVL242:
.L156:
	.loc 1 420 13 view .LVU501
.LBE61:
.LBE60:
	.loc 1 426 9 is_stmt 1 view .LVU502
	.loc 1 426 13 is_stmt 0 view .LVU503
	bl	power_get_state
.LVL243:
	.loc 1 426 12 view .LVU504
	cmp	r0, #1
	beq	.L160
	ldr	r1, [sp, #4]
	b	.L159
.L160:
	.loc 1 427 13 is_stmt 1 view .LVU505
	.loc 1 427 23 is_stmt 0 view .LVU506
	bl	adc_get_current
.LVL244:
	movs	r4, r0
	.loc 1 427 43 view .LVU507
	bl	state_get_idle_current
.LVL245:
	.loc 1 428 13 is_stmt 1 view .LVU508
	.loc 1 427 41 is_stmt 0 view .LVU509
	subs	r1, r4, r0
	.loc 1 428 39 view .LVU510
	mvns	r3, r1
	asrs	r3, r3, #31
	ands	r1, r3
	.loc 1 428 21 view .LVU511
	str	r1, [sp, #4]
	b	.L159
.L162:
	.loc 1 422 20 view .LVU512
	movs	r4, #1
	rsbs	r4, r4, #0
	b	.L155
.L165:
	.align	2
.L164:
	.word	.LC65
	.word	.LC67
	.cfi_endproc
.LFE21:
	.size	cb_txt_current, .-cb_txt_current
	.section	.text.cb_txt_key,"ax",%progbits
	.align	1
	.p2align 2,,3
	.global	cb_txt_key
	.syntax unified
	.code	16
	.thumb_func
	.fpu softvfp
	.type	cb_txt_key, %function
cb_txt_key:
.LVL246:
.LFB24:
	.loc 1 476 43 is_stmt 1 view -0
	.cfi_startproc
	@ args = 0, pretend = 0, frame = 8
	@ frame_needed = 0, uses_anonymous_args = 0
	.loc 1 477 5 view .LVU514
	.loc 1 478 5 view .LVU515
	.loc 1 476 43 is_stmt 0 view .LVU516
	push	{lr}
	.cfi_def_cfa_offset 4
	.cfi_offset 14, -4
	sub	sp, sp, #12
	.cfi_def_cfa_offset 16
	.loc 1 478 8 view .LVU517
	cmp	r1, #1
	ble	.L167
	.loc 1 479 9 is_stmt 1 view .LVU518
	.loc 1 479 14 is_stmt 0 view .LVU519
	adds	r0, r0, #4
.LVL247:
	.loc 1 479 14 view .LVU520
	add	r1, sp, #4
.LVL248:
	.loc 1 479 14 view .LVU521
	bl	xatoi
.LVL249:
	.loc 1 479 12 view .LVU522
	cmp	r0, #0
	beq	.L169
	.loc 1 482 9 is_stmt 1 view .LVU523
	ldr	r0, [sp, #4]
	bl	display_key_state
.LVL250:
	.loc 1 488 12 is_stmt 0 view .LVU524
	movs	r0, #0
.L166:
	.loc 1 489 1 view .LVU525
	add	sp, sp, #12
	@ sp needed
	pop	{pc}
.LVL251:
.L167:
.LBB64:
.LBI64:
	.loc 1 476 5 is_stmt 1 view .LVU526
.LBB65:
	.loc 1 484 9 view .LVU527
	ldr	r0, .L170
.LVL252:
	.loc 1 484 9 is_stmt 0 view .LVU528
	bl	xprintf
.LVL253:
	.loc 1 484 28 is_stmt 1 view .LVU529
	movs	r0, #1
	bl	display_key_state
.LVL254:
	.loc 1 485 9 view .LVU530
	ldr	r0, .L170+4
	bl	xprintf
.LVL255:
	.loc 1 485 28 view .LVU531
	movs	r0, #2
	bl	display_key_state
.LVL256:
	.loc 1 485 28 is_stmt 0 view .LVU532
	movs	r0, #0
	b	.L166
.L169:
.LBE65:
.LBE64:
	.loc 1 480 20 view .LVU533
	movs	r0, #1
	rsbs	r0, r0, #0
	b	.L166
.L171:
	.align	2
.L170:
	.word	.LC69
	.word	.LC71
	.cfi_endproc
.LFE24:
	.size	cb_txt_key, .-cb_txt_key
	.section	.text.cb_txt_uart,"ax",%progbits
	.align	1
	.p2align 2,,3
	.global	cb_txt_uart
	.syntax unified
	.code	16
	.thumb_func
	.fpu softvfp
	.type	cb_txt_uart, %function
cb_txt_uart:
.LVL257:
.LFB25:
	.loc 1 491 44 is_stmt 1 view -0
	.cfi_startproc
	@ args = 0, pretend = 0, frame = 8
	@ frame_needed = 0, uses_anonymous_args = 0
	.loc 1 492 5 view .LVU535
	.loc 1 491 44 is_stmt 0 view .LVU536
	push	{lr}
	.cfi_def_cfa_offset 4
	.cfi_offset 14, -4
	sub	sp, sp, #12
	.cfi_def_cfa_offset 16
	.loc 1 492 8 view .LVU537
	cmp	r1, #1
	ble	.L173
.LBB70:
	.loc 1 493 9 is_stmt 1 view .LVU538
	.loc 1 494 9 view .LVU539
	.loc 1 494 14 is_stmt 0 view .LVU540
	adds	r0, r0, #4
.LVL258:
	.loc 1 494 14 view .LVU541
	add	r1, sp, #4
.LVL259:
	.loc 1 494 14 view .LVU542
	bl	xatoi
.LVL260:
	.loc 1 494 12 view .LVU543
	cmp	r0, #0
	beq	.L176
	.loc 1 497 9 is_stmt 1 view .LVU544
	ldr	r0, [sp, #4]
	bl	uart_set_voltage
.LVL261:
.LBE70:
	.loc 1 502 12 is_stmt 0 view .LVU545
	movs	r0, #0
.L172:
	.loc 1 503 1 view .LVU546
	add	sp, sp, #12
	@ sp needed
	pop	{pc}
.LVL262:
.L173:
.LBB71:
.LBI71:
	.loc 1 491 5 is_stmt 1 view .LVU547
.LBB72:
	.loc 1 499 9 view .LVU548
	bl	uart_get_voltage
.LVL263:
	.loc 1 499 9 is_stmt 0 view .LVU549
	movs	r1, r0
	ldr	r0, .L177
	bl	xprintf
.LVL264:
	.loc 1 499 9 view .LVU550
	movs	r0, #0
	b	.L172
.L176:
.LBE72:
.LBE71:
.LBB73:
	.loc 1 495 13 is_stmt 1 view .LVU551
	.loc 1 495 20 is_stmt 0 view .LVU552
	subs	r0, r0, #1
	b	.L172
.L178:
	.align	2
.L177:
	.word	.LC67
.LBE73:
	.cfi_endproc
.LFE25:
	.size	cb_txt_uart, .-cb_txt_uart
	.section	.text.find_command,"ax",%progbits
	.align	1
	.p2align 2,,3
	.global	find_command
	.syntax unified
	.code	16
	.thumb_func
	.fpu softvfp
	.type	find_command, %function
find_command:
.LVL265:
.LFB26:
	.loc 1 505 47 is_stmt 1 view -0
	.cfi_startproc
	@ args = 0, pretend = 0, frame = 0
	@ frame_needed = 0, uses_anonymous_args = 0
	.loc 1 506 5 view .LVU554
	.loc 1 508 5 view .LVU555
	.loc 1 505 47 is_stmt 0 view .LVU556
	push	{r4, r5, r6, lr}
	.cfi_def_cfa_offset 16
	.cfi_offset 4, -16
	.cfi_offset 5, -12
	.cfi_offset 6, -8
	.cfi_offset 14, -4
	.loc 1 505 47 view .LVU557
	movs	r6, r0
	ldr	r5, .L189
	ldr	r0, .L189+4
.LVL266:
	.loc 1 508 12 view .LVU558
	movs	r4, #0
	b	.L182
.LVL267:
.L188:
	.loc 1 508 12 view .LVU559
	ldr	r0, [r5]
	adds	r5, r5, #12
.LVL268:
.L182:
	.loc 1 509 9 is_stmt 1 view .LVU560
	.loc 1 509 11 is_stmt 0 view .LVU561
	cmp	r0, #0
	beq	.L180
	.loc 1 509 33 discriminator 1 view .LVU562
	movs	r1, r6
	bl	strcmp
.LVL269:
	.loc 1 509 29 discriminator 1 view .LVU563
	cmp	r0, #0
	beq	.L187
.L180:
	.loc 1 508 60 discriminator 2 view .LVU564
	adds	r4, r4, #1
.LVL270:
	.loc 1 508 5 discriminator 2 view .LVU565
	cmp	r4, #19
	bne	.L188
	.loc 1 512 11 view .LVU566
	movs	r0, #0
.LVL271:
.L179:
	.loc 1 513 1 view .LVU567
	@ sp needed
.LVL272:
	.loc 1 513 1 view .LVU568
	pop	{r4, r5, r6, pc}
.LVL273:
.L187:
	.loc 1 510 13 is_stmt 1 view .LVU569
	.loc 1 510 20 is_stmt 0 view .LVU570
	lsls	r0, r4, #1
	adds	r0, r0, r4
	ldr	r4, .L189+8
.LVL274:
	.loc 1 510 20 view .LVU571
	lsls	r0, r0, #2
	adds	r0, r0, r4
	b	.L179
.L190:
	.align	2
.L189:
	.word	commands+12
	.word	.LC2
	.word	commands
	.cfi_endproc
.LFE26:
	.size	find_command, .-find_command
	.section	.text.process_command,"ax",%progbits
	.align	1
	.p2align 2,,3
	.global	process_command
	.syntax unified
	.code	16
	.thumb_func
	.fpu softvfp
	.type	process_command, %function
process_command:
.LVL275:
.LFB27:
	.loc 1 516 33 is_stmt 1 view -0
	.cfi_startproc
	@ args = 0, pretend = 0, frame = 40
	@ frame_needed = 0, uses_anonymous_args = 0
	.loc 1 517 5 view .LVU573
	.loc 1 518 5 view .LVU574
	.loc 1 516 33 is_stmt 0 view .LVU575
	push	{r4, lr}
	.cfi_def_cfa_offset 8
	.cfi_offset 4, -8
	.cfi_offset 14, -4
	sub	sp, sp, #40
	.cfi_def_cfa_offset 48
	.loc 1 516 33 view .LVU576
	movs	r2, r0
	.loc 1 518 19 view .LVU577
	ldr	r3, .L198
	movs	r1, #10
	mov	r0, sp
.LVL276:
	.loc 1 518 19 view .LVU578
	bl	str_split
.LVL277:
	.loc 1 518 19 view .LVU579
	subs	r4, r0, #0
.LVL278:
	.loc 1 520 5 is_stmt 1 view .LVU580
	.loc 1 520 8 is_stmt 0 view .LVU581
	beq	.L191
.LBB74:
	.loc 1 521 9 is_stmt 1 view .LVU582
	.loc 1 521 38 is_stmt 0 view .LVU583
	ldr	r0, [sp]
.LVL279:
	.loc 1 521 38 view .LVU584
	bl	find_command
.LVL280:
	.loc 1 522 9 is_stmt 1 view .LVU585
	.loc 1 522 12 is_stmt 0 view .LVU586
	cmp	r0, #0
	beq	.L193
	.loc 1 523 13 is_stmt 1 view .LVU587
	.loc 1 523 17 is_stmt 0 view .LVU588
	ldr	r3, [r0, #4]
	movs	r1, r4
	mov	r0, sp
.LVL281:
	.loc 1 523 17 view .LVU589
	blx	r3
.LVL282:
	.loc 1 523 16 view .LVU590
	cmp	r0, #0
	bne	.L194
	.loc 1 524 17 is_stmt 1 view .LVU591
	ldr	r0, .L198+4
	bl	xprintf
.LVL283:
.L191:
	.loc 1 524 17 is_stmt 0 view .LVU592
.LBE74:
	.loc 1 532 1 view .LVU593
	add	sp, sp, #40
	@ sp needed
.LVL284:
	.loc 1 532 1 view .LVU594
	pop	{r4, pc}
.LVL285:
.L194:
.LBB75:
	.loc 1 526 17 is_stmt 1 view .LVU595
	ldr	r0, .L198+8
	bl	xprintf
.LVL286:
	b	.L191
.LVL287:
.L193:
	.loc 1 529 13 view .LVU596
	ldr	r0, .L198+12
.LVL288:
	.loc 1 529 13 is_stmt 0 view .LVU597
	bl	xprintf
.LVL289:
.LBE75:
	.loc 1 532 1 view .LVU598
	b	.L191
.L199:
	.align	2
.L198:
	.word	.LC77
	.word	.LC79
	.word	.LC81
	.word	.LC83
	.cfi_endproc
.LFE27:
	.size	process_command, .-process_command
	.global	commands
	.section	.bss.text_buf.5867,"aw",%nobits
	.align	2
	.set	.LANCHOR0,. + 0
	.type	text_buf.5867, %object
	.size	text_buf.5867, 17
text_buf.5867:
	.space	17
	.section	.rodata.cb_txt_adc.str1.4,"aMS",%progbits,1
	.align	2
.LC63:
	.ascii	"vrefint: %d\012\000"
	.section	.rodata.cb_txt_current.str1.4,"aMS",%progbits,1
	.align	2
.LC65:
	.ascii	"auto\000"
	.space	3
.LC67:
	.ascii	"%d\012\000"
	.section	.rodata.cb_txt_draw.str1.4,"aMS",%progbits,1
	.align	2
.LC32:
	.ascii	"point\000"
	.space	2
.LC34:
	.ascii	"line\000"
	.space	3
.LC36:
	.ascii	"circle\000"
	.space	1
.LC38:
	.ascii	"rectangle\000"
	.section	.rodata.cb_txt_echo.str1.4,"aMS",%progbits,1
	.align	2
.LC11:
	.ascii	"on\000"
	.space	1
.LC13:
	.ascii	"off\000"
.LC15:
	.ascii	"Echo is %s now.\012\000"
	.section	.rodata.cb_txt_help.str1.4,"aMS",%progbits,1
	.align	2
.LC0:
	.ascii	"This help\000"
	.space	2
.LC2:
	.ascii	"help\000"
	.space	3
.LC6:
	.ascii	"%10s --- %s\012\000"
	.section	.rodata.cb_txt_key.str1.4,"aMS",%progbits,1
	.align	2
.LC69:
	.ascii	"key1: \000"
	.space	1
.LC71:
	.ascii	"key2: \000"
	.section	.rodata.cb_txt_lthor.str1.4,"aMS",%progbits,1
	.align	2
.LC43:
	.ascii	"switch\000"
	.space	1
.LC46:
	.ascii	"id\000"
	.space	1
.LC48:
	.ascii	"vbus\000"
	.space	3
.LC50:
	.ascii	"combo\000"
	.section	.rodata.cb_txt_mux.str1.4,"aMS",%progbits,1
	.align	2
.LC57:
	.ascii	"ts\000"
	.space	1
.LC59:
	.ascii	"dut\000"
.LC61:
	.ascii	"invalid\000"
	.section	.rodata.cb_txt_power.str1.4,"aMS",%progbits,1
	.align	2
.LC19:
	.ascii	"tick\000"
	.space	3
.LC21:
	.ascii	"%s\012\000"
	.section	.rodata.cb_txt_text.str1.4,"aMS",%progbits,1
	.align	2
.LC30:
	.ascii	" \000"
	.section	.rodata.cb_txt_version.str1.4,"aMS",%progbits,1
	.align	2
.LC9:
	.ascii	"MuxPi firmware v%s\012\000"
	.section	.rodata.commands,"a"
	.align	2
	.type	commands, %object
	.size	commands, 228
commands:
	.word	.LC2
	.word	cb_txt_help
	.word	.LC0
	.word	.LC85
	.word	cb_txt_version
	.word	.LC86
	.word	.LC87
	.word	cb_txt_echo
	.word	.LC88
	.word	.LC89
	.word	cb_txt_power
	.word	.LC90
	.word	.LC91
	.word	cb_txt_hdmi
	.word	.LC92
	.word	.LC93
	.word	cb_txt_dyper
	.word	.LC94
	.word	.LC95
	.word	cb_txt_mux
	.word	.LC96
	.word	.LC59
	.word	cb_txt_dut
	.word	.LC97
	.word	.LC57
	.word	cb_txt_ts
	.word	.LC98
	.word	.LC99
	.word	cb_txt_led
	.word	.LC100
	.word	.LC101
	.word	cb_txt_clr
	.word	.LC102
	.word	.LC103
	.word	cb_txt_text
	.word	.LC104
	.word	.LC105
	.word	cb_txt_draw
	.word	.LC106
	.word	.LC107
	.word	cb_txt_adc
	.word	.LC108
	.word	.LC109
	.word	cb_txt_voltage
	.word	.LC110
	.word	.LC111
	.word	cb_txt_current
	.word	.LC112
	.word	.LC113
	.word	cb_txt_lthor
	.word	.LC114
	.word	.LC115
	.word	cb_txt_key
	.word	.LC116
	.word	.LC117
	.word	cb_txt_uart
	.word	.LC118
	.section	.rodata.display_key_state.str1.4,"aMS",%progbits,1
	.align	2
.LC52:
	.ascii	"pressed\000"
.LC54:
	.ascii	"released\000"
	.section	.rodata.print_adc.str1.4,"aMS",%progbits,1
	.align	2
.LC40:
	.ascii	"adc%d: %d\012\000"
	.section	.rodata.print_color.str1.4,"aMS",%progbits,1
	.align	2
.LC27:
	.ascii	"led%d: %d,%d,%d\012\000"
	.section	.rodata.process_command.str1.4,"aMS",%progbits,1
	.align	2
.LC77:
	.ascii	" \011\012\013\014\015\000"
	.space	1
.LC79:
	.ascii	"OK\012\000"
.LC81:
	.ascii	"Error processing command\012\000"
	.space	2
.LC83:
	.ascii	"Unknown command\012\000"
	.section	.rodata.str1.4,"aMS",%progbits,1
	.align	2
.LC85:
	.ascii	"version\000"
.LC86:
	.ascii	"Display version of the firmware\000"
.LC87:
	.ascii	"echo\000"
	.space	3
.LC88:
	.ascii	"Get (no arguments) or set ('on' or 'off') echo on s"
	.ascii	"erial \"console\": echo [on|off]. The default value"
	.ascii	" is on.\000"
.LC89:
	.ascii	"power\000"
	.space	2
.LC90:
	.ascii	"Get (no arguments) or set ('on' or 'off') or switch"
	.ascii	" off and on ('tick') power supply for DUT: power [o"
	.ascii	"n|off|tick]\000"
	.space	2
.LC91:
	.ascii	"hdmi\000"
	.space	3
.LC92:
	.ascii	"Get (no arguments) or set ('on' or 'off') HDMI HOTP"
	.ascii	"LUG pin: hdmi [on|off]\000"
	.space	2
.LC93:
	.ascii	"dyper\000"
	.space	2
.LC94:
	.ascii	"Get (no second argument) or set ('on' or 'off') DyP"
	.ascii	"er state: dyper 1|2 [on|off]\000"
.LC95:
	.ascii	"mux\000"
.LC96:
	.ascii	"Connect microSD card to external connector (DUT) or"
	.ascii	" card reader (ts): mux [dut|ts]\000"
	.space	1
.LC97:
	.ascii	"Connect microSD card and power to DUT: dut\000"
	.space	1
.LC98:
	.ascii	"Connect microSD card and power to TS: ts\000"
	.space	3
.LC99:
	.ascii	"led\000"
.LC100:
	.ascii	"Get (no second or third argument) or set ('R G B') "
	.ascii	"color of led (1 | 2), ex: led 1 255 0 255\000"
	.space	3
.LC101:
	.ascii	"clr\000"
.LC102:
	.ascii	"Clear oled display\000"
	.space	1
.LC103:
	.ascii	"text\000"
	.space	3
.LC104:
	.ascii	"Print text on the OLED display: text x y color cont"
	.ascii	"ent\000"
	.space	1
.LC105:
	.ascii	"draw\000"
	.space	3
.LC106:
	.ascii	"Draw an object on the OLED display: draw object x1 "
	.ascii	"y1 [x2 y2], objects are:\012               - point "
	.ascii	"x y color - draws one point at given coordinates\012"
	.ascii	"               - line x1 y1 x2 y2 color - draws lin"
	.ascii	"e between given coordinates\012               - rec"
	.ascii	"tangle left top width height color - draws line bet"
	.ascii	"ween given coordinates\012               - circle x"
	.ascii	" y radius color - draws line between given coordina"
	.ascii	"tes\012     color must be 'on', 'off' or 'inv'\000"
	.space	3
.LC107:
	.ascii	"adc\000"
.LC108:
	.ascii	"Print current adc value of all (if no arguments are"
	.ascii	" given) or one specified channel, ex: adc 1\000"
	.space	1
.LC109:
	.ascii	"voltage\000"
.LC110:
	.ascii	"Print current voltage [mV] of all (if no arguments "
	.ascii	"are given) or one specified channel, ex: voltage 1\000"
	.space	2
.LC111:
	.ascii	"current\000"
.LC112:
	.ascii	"Print current current [mA] being consumed by DUT\000"
	.space	3
.LC113:
	.ascii	"lthor\000"
	.space	2
.LC114:
	.ascii	"Get (no second argument) or set state of lthor cont"
	.ascii	"rol signals:\012               - lthor switch [usb|"
	.ascii	"uart] - redirect DUT's USB wires to NanoPi's 'usb' "
	.ascii	"or 'uart'\012               - lthor id [usb|uart] -"
	.ascii	" switch DUT's USB to 'usb' or 'uart' mode\012      "
	.ascii	"         - lthor vbus [on|off] - switch DUT's VBUS "
	.ascii	"'on' or 'off'\012               - lthor combo [usb|"
	.ascii	"uart] - make DUT and MuxPi USB work in 'usb' or 'ua"
	.ascii	"rt' mode - no get function\012\000"
.LC115:
	.ascii	"key\000"
.LC116:
	.ascii	"Get current state of given key or both if no key nu"
	.ascii	"mber is given: key [1|2]\000"
.LC117:
	.ascii	"uart\000"
	.space	3
.LC118:
	.ascii	"Get current value of UART voltage or set if new val"
	.ascii	"ue is given [in millivolts]\000"
	.text
.Letext0:
	.file 2 "/home/a.malinowsk2/Programs/gcc-arm-none-eabi-8-2018-q4-major/arm-none-eabi/include/machine/_default_types.h"
	.file 3 "/home/a.malinowsk2/Programs/gcc-arm-none-eabi-8-2018-q4-major/arm-none-eabi/include/sys/lock.h"
	.file 4 "/home/a.malinowsk2/Programs/gcc-arm-none-eabi-8-2018-q4-major/arm-none-eabi/include/sys/_types.h"
	.file 5 "/home/a.malinowsk2/Programs/gcc-arm-none-eabi-8-2018-q4-major/lib/gcc/arm-none-eabi/8.2.1/include/stddef.h"
	.file 6 "/home/a.malinowsk2/Programs/gcc-arm-none-eabi-8-2018-q4-major/arm-none-eabi/include/sys/reent.h"
	.file 7 "../include/xprintf.h"
	.file 8 "/home/a.malinowsk2/Programs/gcc-arm-none-eabi-8-2018-q4-major/arm-none-eabi/include/sys/_stdint.h"
	.file 9 "../include/control.h"
	.file 10 "../include/leds.h"
	.file 11 "./oled.h"
	.file 12 "../FreeRTOS/Source/include/queue.h"
	.file 13 "../include/uart.h"
	.file 14 "../include/commands.h"
	.file 15 "../include/misc.h"
	.file 16 "/home/a.malinowsk2/Programs/gcc-arm-none-eabi-8-2018-q4-major/arm-none-eabi/include/string.h"
	.file 17 "./keys.h"
	.file 18 "/home/a.malinowsk2/Programs/gcc-arm-none-eabi-8-2018-q4-major/arm-none-eabi/include/strings.h"
	.file 19 "./adc.h"
	.file 20 "<built-in>"
	.file 21 "./state.h"
	.file 22 "./firmware.h"