	.cpu cortex-m0
	.eabi_attribute 20, 1
	.eabi_attribute 21, 1
	.eabi_attribute 23, 3
	.eabi_attribute 24, 1
	.eabi_attribute 25, 1
	.eabi_attribute 26, 1
	.eabi_attribute 30, 2
	.eabi_attribute 34, 0
	.eabi_attribute 18, 4
	.file	"control.c"
	.text
.Ltext0:
	.cfi_sections	.debug_frame
	.section	.text.mux_set_state.part.1,"ax",%progbits
	.align	1
	.p2align 2,,3
	.arch armv6s-m
	.syntax unified
	.code	16
	.thumb_func
	.fpu softvfp
	.type	mux_set_state.part.1, %function
mux_set_state.part.1:
.LFB22:
	.file 1 "control.c"
	.loc 1 110 6 view -0
	.cfi_startproc
	@ args = 0, pretend = 0, frame = 0
	@ frame_needed = 0, uses_anonymous_args = 0
.LVL0:
	.loc 1 112 9 view .LVU1
	.loc 1 110 6 is_stmt 0 view .LVU2
	push	{r4, lr}
	.cfi_def_cfa_offset 8
	.cfi_offset 4, -8
	.cfi_offset 14, -4
	.loc 1 112 9 view .LVU3
	ldr	r4, .L3
	movs	r1, #128
	movs	r0, r4
	bl	gpio_set
.LVL1:
	.loc 1 113 9 is_stmt 1 view .LVU4
	movs	r1, #64
	movs	r0, r4
	bl	gpio_clear
.LVL2:
	.loc 1 118 1 is_stmt 0 view .LVU5
	@ sp needed
	pop	{r4, pc}
.L4:
	.align	2
.L3:
	.word	1207960576
	.cfi_endproc
.LFE22:
	.size	mux_set_state.part.1, .-mux_set_state.part.1
	.section	.text.control_setup,"ax",%progbits
	.align	1
	.p2align 2,,3
	.global	control_setup
	.syntax unified
	.code	16
	.thumb_func
	.fpu softvfp
	.type	control_setup, %function
control_setup:
.LFB0:
	.loc 1 32 26 is_stmt 1 view -0
	.cfi_startproc
	@ args = 0, pretend = 0, frame = 0
	@ frame_needed = 0, uses_anonymous_args = 0
	.loc 1 33 5 view .LVU7
	.loc 1 32 26 is_stmt 0 view .LVU8
	push	{r4, lr}
	.cfi_def_cfa_offset 8
	.cfi_offset 4, -8
	.cfi_offset 14, -4
	.loc 1 33 5 view .LVU9
	ldr	r4, .L6
	movs	r3, #2
	movs	r0, r4
	movs	r2, #0
	movs	r1, #1
	bl	gpio_mode_setup
.LVL3:
	.loc 1 34 5 is_stmt 1 view .LVU10
	movs	r0, r4
	movs	r3, #4
	movs	r2, #0
	movs	r1, #1
	bl	gpio_mode_setup
.LVL4:
	.loc 1 35 5 view .LVU11
	movs	r0, r4
	movs	r3, #192
	movs	r2, #0
	movs	r1, #1
	bl	gpio_mode_setup
.LVL5:
	.loc 1 36 5 view .LVU12
	movs	r3, #128
	movs	r0, r4
	lsls	r3, r3, #1
	movs	r2, #0
	movs	r1, #1
	bl	gpio_mode_setup
.LVL6:
	.loc 1 37 5 view .LVU13
	movs	r3, #192
	movs	r0, #144
	lsls	r3, r3, #5
	movs	r2, #0
	movs	r1, #1
	lsls	r0, r0, #23
	bl	gpio_mode_setup
.LVL7:
	.loc 1 38 5 view .LVU14
	movs	r3, #224
	movs	r2, #0
	lsls	r3, r3, #8
	movs	r1, #1
	ldr	r0, .L6+4
	bl	gpio_mode_setup
.LVL8:
	.loc 1 40 5 view .LVU15
.LBB18:
.LBI18:
	.loc 1 140 6 view .LVU16
.LBE18:
	.loc 1 141 5 view .LVU17
.LBB23:
.LBB19:
.LBI19:
	.loc 1 110 6 view .LVU18
.LBB20:
	.loc 1 111 5 view .LVU19
	bl	mux_set_state.part.1
.LVL9:
	.loc 1 111 5 is_stmt 0 view .LVU20
.LBE20:
.LBE19:
.LBE23:
	.loc 1 142 5 is_stmt 1 view .LVU21
.LBB24:
.LBB21:
.LBI21:
	.loc 1 67 6 view .LVU22
.LBB22:
	.loc 1 68 5 view .LVU23
	.loc 1 71 9 view .LVU24
	movs	r1, #2
	movs	r0, r4
	bl	gpio_clear
.LVL10:
	.loc 1 71 9 is_stmt 0 view .LVU25
.LBE22:
.LBE21:
.LBE24:
	.loc 1 41 1 view .LVU26
	@ sp needed
	pop	{r4, pc}
.L7:
	.align	2
.L6:
	.word	1207960576
	.word	1207961600
	.cfi_endproc
.LFE0:
	.size	control_setup, .-control_setup
	.section	.text.power_state_from_string,"ax",%progbits
	.align	1
	.p2align 2,,3
	.global	power_state_from_string
	.syntax unified
	.code	16
	.thumb_func
	.fpu softvfp
	.type	power_state_from_string, %function
power_state_from_string:
.LVL11:
.LFB1:
	.loc 1 47 51 is_stmt 1 view -0
	.cfi_startproc
	@ args = 0, pretend = 0, frame = 0
	@ frame_needed = 0, uses_anonymous_args = 0
	.loc 1 48 5 view .LVU28
	.loc 1 47 51 is_stmt 0 view .LVU29
	push	{r4, lr}
	.cfi_def_cfa_offset 8
	.cfi_offset 4, -8
	.cfi_offset 14, -4
	.loc 1 48 9 view .LVU30
	movs	r2, #2
	ldr	r1, .L12
	.loc 1 47 51 view .LVU31
	movs	r4, r0
	.loc 1 48 9 view .LVU32
	bl	strncasecmp
.LVL12:
	.loc 1 48 8 view .LVU33
	cmp	r0, #0
	beq	.L10
	.loc 1 49 5 is_stmt 1 view .LVU34
	.loc 1 49 9 is_stmt 0 view .LVU35
	movs	r2, #3
	ldr	r1, .L12+4
	movs	r0, r4
	bl	strncasecmp
.LVL13:
	.loc 1 49 64 view .LVU36
	subs	r3, r0, #1
	sbcs	r0, r0, r3
	lsls	r0, r0, #1
.L9:
	.loc 1 52 1 view .LVU37
	@ sp needed
.LVL14:
	.loc 1 52 1 view .LVU38
	pop	{r4, pc}
.LVL15:
.L10:
	.loc 1 48 62 view .LVU39
	movs	r0, #1
	b	.L9
.L13:
	.align	2
.L12:
	.word	.LC0
	.word	.LC2
	.cfi_endproc
.LFE1:
	.size	power_state_from_string, .-power_state_from_string
	.section	.text.power_state_to_string,"ax",%progbits
	.align	1
	.p2align 2,,3
	.global	power_state_to_string
	.syntax unified
	.code	16
	.thumb_func
	.fpu softvfp
	.type	power_state_to_string, %function
power_state_to_string:
.LVL16:
.LFB2:
	.loc 1 54 48 is_stmt 1 view -0
	.cfi_startproc
	@ args = 0, pretend = 0, frame = 0
	@ frame_needed = 0, uses_anonymous_args = 0
	@ link register save eliminated.
	.loc 1 55 5 view .LVU41
	cmp	r0, #2
	bhi	.L16
	ldr	r3, .L17
	lsls	r0, r0, #2
.LVL17:
	.loc 1 55 5 is_stmt 0 view .LVU42
	ldr	r0, [r0, r3]
.L14:
	.loc 1 65 1 view .LVU43
	@ sp needed
	bx	lr
.LVL18:
.L16:
	.loc 1 54 48 view .LVU44
	ldr	r0, .L17+4
.LVL19:
	.loc 1 54 48 view .LVU45
	b	.L14
.L18:
	.align	2
.L17:
	.word	.LANCHOR0
	.word	.LC2
	.cfi_endproc
.LFE2:
	.size	power_state_to_string, .-power_state_to_string
	.section	.text.power_set_state,"ax",%progbits
	.align	1
	.p2align 2,,3
	.global	power_set_state
	.syntax unified
	.code	16
	.thumb_func
	.fpu softvfp
	.type	power_set_state, %function
power_set_state:
.LVL20:
.LFB3:
	.loc 1 67 41 is_stmt 1 view -0
	.cfi_startproc
	@ args = 0, pretend = 0, frame = 0
	@ frame_needed = 0, uses_anonymous_args = 0
	.loc 1 68 5 view .LVU47
	.loc 1 67 41 is_stmt 0 view .LVU48
	push	{r4, lr}
	.cfi_def_cfa_offset 8
	.cfi_offset 4, -8
	.cfi_offset 14, -4
.LBB27:
.LBB28:
	.loc 1 69 9 view .LVU49
	movs	r1, #2
.LBE28:
.LBE27:
	.loc 1 68 8 view .LVU50
	cmp	r0, #1
	beq	.L22
	.loc 1 71 9 is_stmt 1 view .LVU51
	ldr	r0, .L23
.LVL21:
	.loc 1 71 9 is_stmt 0 view .LVU52
	bl	gpio_clear
.LVL22:
.L19:
	.loc 1 73 1 view .LVU53
	@ sp needed
	pop	{r4, pc}
.LVL23:
.L22:
.LBB30:
.LBI27:
	.loc 1 67 6 is_stmt 1 view .LVU54
.LBB29:
	.loc 1 69 9 view .LVU55
	ldr	r0, .L23
.LVL24:
	.loc 1 69 9 is_stmt 0 view .LVU56
	bl	gpio_set
.LVL25:
	b	.L19
.L24:
	.align	2
.L23:
	.word	1207960576
.LBE29:
.LBE30:
	.cfi_endproc
.LFE3:
	.size	power_set_state, .-power_set_state
	.section	.text.power_get_state,"ax",%progbits
	.align	1
	.p2align 2,,3
	.global	power_get_state
	.syntax unified
	.code	16
	.thumb_func
	.fpu softvfp
	.type	power_get_state, %function
power_get_state:
.LFB4:
	.loc 1 75 35 is_stmt 1 view -0
	.cfi_startproc
	@ args = 0, pretend = 0, frame = 0
	@ frame_needed = 0, uses_anonymous_args = 0
	.loc 1 76 5 view .LVU58
	.loc 1 75 35 is_stmt 0 view .LVU59
	push	{r4, lr}
	.cfi_def_cfa_offset 8
	.cfi_offset 4, -8
	.cfi_offset 14, -4
	.loc 1 76 12 view .LVU60
	movs	r1, #2
	ldr	r0, .L26
	bl	gpio_get
.LVL26:
	.loc 1 76 83 view .LVU61
	subs	r3, r0, #1
	sbcs	r0, r0, r3
	.loc 1 77 1 view .LVU62
	@ sp needed
	.loc 1 76 83 view .LVU63
	uxtb	r0, r0
	.loc 1 77 1 view .LVU64
	pop	{r4, pc}
.L27:
	.align	2
.L26:
	.word	1207960576
	.cfi_endproc
.LFE4:
	.size	power_get_state, .-power_get_state
	.section	.text.power_tick,"ax",%progbits
	.align	1
	.p2align 2,,3
	.global	power_tick
	.syntax unified
	.code	16
	.thumb_func
	.fpu softvfp
	.type	power_tick, %function
power_tick:
.LVL27:
.LFB5:
	.loc 1 79 36 is_stmt 1 view -0
	.cfi_startproc
	@ args = 0, pretend = 0, frame = 0
	@ frame_needed = 0, uses_anonymous_args = 0
	.loc 1 80 5 view .LVU66
	.loc 1 79 36 is_stmt 0 view .LVU67
	push	{r4, lr}
	.cfi_def_cfa_offset 8
	.cfi_offset 4, -8
	.cfi_offset 14, -4
	.loc 1 79 36 view .LVU68
	subs	r4, r0, #0
	.loc 1 80 40 view .LVU69
	bne	.L29
	movs	r4, #250
	lsls	r4, r4, #2
.L29:
.LVL28:
	.loc 1 81 5 is_stmt 1 discriminator 4 view .LVU70
.LBB37:
.LBI37:
	.loc 1 67 6 discriminator 4 view .LVU71
.LBB38:
	.loc 1 68 5 discriminator 4 view .LVU72
	.loc 1 71 9 discriminator 4 view .LVU73
	movs	r1, #2
	ldr	r0, .L30
	bl	gpio_clear
.LVL29:
	.loc 1 71 9 is_stmt 0 discriminator 4 view .LVU74
.LBE38:
.LBE37:
	.loc 1 82 5 is_stmt 1 discriminator 4 view .LVU75
	movs	r0, r4
	bl	vTaskDelay
.LVL30:
	.loc 1 83 5 discriminator 4 view .LVU76
.LBB39:
.LBI39:
	.loc 1 67 6 discriminator 4 view .LVU77
.LBE39:
	.loc 1 68 5 discriminator 4 view .LVU78
.LBB42:
.LBB40:
.LBI40:
	.loc 1 67 6 discriminator 4 view .LVU79
.LBB41:
	.loc 1 69 9 discriminator 4 view .LVU80
	movs	r1, #2
	ldr	r0, .L30
	bl	gpio_set
.LVL31:
	.loc 1 69 9 is_stmt 0 discriminator 4 view .LVU81
.LBE41:
.LBE40:
.LBE42:
	.loc 1 84 1 discriminator 4 view .LVU82
	@ sp needed
.LVL32:
	.loc 1 84 1 discriminator 4 view .LVU83
	pop	{r4, pc}
.L31:
	.align	2
.L30:
	.word	1207960576
	.cfi_endproc
.LFE5:
	.size	power_tick, .-power_tick
	.section	.text.hdmi_set_state,"ax",%progbits
	.align	1
	.p2align 2,,3
	.global	hdmi_set_state
	.syntax unified
	.code	16
	.thumb_func
	.fpu softvfp
	.type	hdmi_set_state, %function
hdmi_set_state:
.LVL33:
.LFB6:
	.loc 1 86 32 is_stmt 1 view -0
	.cfi_startproc
	@ args = 0, pretend = 0, frame = 0
	@ frame_needed = 0, uses_anonymous_args = 0
	.loc 1 87 5 view .LVU85
	.loc 1 86 32 is_stmt 0 view .LVU86
	push	{r4, lr}
	.cfi_def_cfa_offset 8
	.cfi_offset 4, -8
	.cfi_offset 14, -4
	.loc 1 88 9 view .LVU87
	movs	r1, #4
	.loc 1 87 8 view .LVU88
	cmp	r0, #0
	beq	.L33
	.loc 1 88 9 is_stmt 1 view .LVU89
	ldr	r0, .L35
.LVL34:
	.loc 1 88 9 is_stmt 0 view .LVU90
	bl	gpio_set
.LVL35:
.L32:
	.loc 1 92 1 view .LVU91
	@ sp needed
	pop	{r4, pc}
.LVL36:
.L33:
	.loc 1 90 9 is_stmt 1 view .LVU92
	ldr	r0, .L35
.LVL37:
	.loc 1 90 9 is_stmt 0 view .LVU93
	bl	gpio_clear
.LVL38:
	.loc 1 92 1 view .LVU94
	b	.L32
.L36:
	.align	2
.L35:
	.word	1207960576
	.cfi_endproc
.LFE6:
	.size	hdmi_set_state, .-hdmi_set_state
	.section	.text.dyper_set_state,"ax",%progbits
	.align	1
	.p2align 2,,3
	.global	dyper_set_state
	.syntax unified
	.code	16
	.thumb_func
	.fpu softvfp
	.type	dyper_set_state, %function
dyper_set_state:
.LVL39:
.LFB7:
	.loc 1 94 52 is_stmt 1 view -0
	.cfi_startproc
	@ args = 0, pretend = 0, frame = 0
	@ frame_needed = 0, uses_anonymous_args = 0
	.loc 1 95 5 view .LVU96
	.loc 1 94 52 is_stmt 0 view .LVU97
	push	{r4, lr}
	.cfi_def_cfa_offset 8
	.cfi_offset 4, -8
	.cfi_offset 14, -4
	.loc 1 94 52 view .LVU98
	movs	r4, r1
	.loc 1 95 8 view .LVU99
	cmp	r0, #2
	bhi	.L41
	.loc 1 99 5 is_stmt 1 view .LVU100
	.loc 1 99 14 is_stmt 0 view .LVU101
	movs	r3, #128
	subs	r0, r0, #1
.LVL40:
	.loc 1 99 14 view .LVU102
	rsbs	r1, r0, #0
	adcs	r1, r1, r0
.LVL41:
	.loc 1 99 14 view .LVU103
	lsls	r3, r3, #5
	mov	ip, r3
	.loc 1 102 9 view .LVU104
	movs	r0, #144
	.loc 1 99 14 view .LVU105
	rsbs	r1, r1, #0
	lsls	r1, r1, #11
	add	r1, r1, ip
.LVL42:
	.loc 1 101 5 is_stmt 1 view .LVU106
	.loc 1 102 9 is_stmt 0 view .LVU107
	lsls	r0, r0, #23
	.loc 1 101 8 view .LVU108
	cmp	r4, #0
	bne	.L43
	.loc 1 104 9 is_stmt 1 view .LVU109
	bl	gpio_clear
.LVL43:
	.loc 1 107 11 is_stmt 0 view .LVU110
	movs	r0, #1
.L38:
	.loc 1 108 1 view .LVU111
	@ sp needed
	pop	{r4, pc}
.LVL44:
.L43:
	.loc 1 102 9 is_stmt 1 view .LVU112
	bl	gpio_set
.LVL45:
	.loc 1 107 11 is_stmt 0 view .LVU113
	movs	r0, r4
	b	.L38
.LVL46:
.L41:
	.loc 1 96 15 view .LVU114
	movs	r0, #0
.LVL47:
	.loc 1 96 15 view .LVU115
	b	.L38
	.cfi_endproc
.LFE7:
	.size	dyper_set_state, .-dyper_set_state
	.section	.text.mux_set_state,"ax",%progbits
	.align	1
	.p2align 2,,3
	.global	mux_set_state
	.syntax unified
	.code	16
	.thumb_func
	.fpu softvfp
	.type	mux_set_state, %function
mux_set_state:
.LVL48:
.LFB8:
	.loc 1 110 37 is_stmt 1 view -0
	.cfi_startproc
	@ args = 0, pretend = 0, frame = 0
	@ frame_needed = 0, uses_anonymous_args = 0
	.loc 1 111 5 view .LVU117
	.loc 1 110 37 is_stmt 0 view .LVU118
	push	{r4, lr}
	.cfi_def_cfa_offset 8
	.cfi_offset 4, -8
	.cfi_offset 14, -4
	.loc 1 111 8 view .LVU119
	cmp	r0, #1
	beq	.L47
	.loc 1 115 9 is_stmt 1 view .LVU120
	movs	r1, #64
	ldr	r0, .L48
.LVL49:
	.loc 1 115 9 is_stmt 0 view .LVU121
	bl	gpio_set
.LVL50:
	.loc 1 116 9 is_stmt 1 view .LVU122
	movs	r1, #128
	ldr	r0, .L48
	bl	gpio_clear
.LVL51:
.L44:
	.loc 1 118 1 is_stmt 0 view .LVU123
	@ sp needed
	pop	{r4, pc}
.LVL52:
.L47:
	.loc 1 118 1 view .LVU124
	bl	mux_set_state.part.1
.LVL53:
	.loc 1 118 1 view .LVU125
	b	.L44
.L49:
	.align	2
.L48:
	.word	1207960576
	.cfi_endproc
.LFE8:
	.size	mux_set_state, .-mux_set_state
	.section	.text.mux_get_state,"ax",%progbits
	.align	1
	.p2align 2,,3
	.global	mux_get_state
	.syntax unified
	.code	16
	.thumb_func
	.fpu softvfp
	.type	mux_get_state, %function
mux_get_state:
.LFB9:
	.loc 1 120 31 is_stmt 1 view -0
	.cfi_startproc
	@ args = 0, pretend = 0, frame = 0
	@ frame_needed = 0, uses_anonymous_args = 0
	.loc 1 121 5 view .LVU127
	.loc 1 120 31 is_stmt 0 view .LVU128
	push	{r4, lr}
	.cfi_def_cfa_offset 8
	.cfi_offset 4, -8
	.cfi_offset 14, -4
	.loc 1 121 27 view .LVU129
	movs	r1, #128
	ldr	r0, .L55
	bl	gpio_get
.LVL54:
	.loc 1 122 26 view .LVU130
	movs	r1, #64
	.loc 1 121 27 view .LVU131
	movs	r4, r0
.LVL55:
	.loc 1 122 5 is_stmt 1 view .LVU132
	.loc 1 122 26 is_stmt 0 view .LVU133
	ldr	r0, .L55
	bl	gpio_get
.LVL56:
	.loc 1 124 5 is_stmt 1 view .LVU134
	.loc 1 124 8 is_stmt 0 view .LVU135
	cmp	r4, #0
	beq	.L51
	.loc 1 125 16 discriminator 1 view .LVU136
	subs	r3, r0, #1
	sbcs	r0, r0, r3
.LVL57:
	.loc 1 125 16 discriminator 1 view .LVU137
	adds	r0, r0, #1
.L52:
	.loc 1 133 1 view .LVU138
	@ sp needed
.LVL58:
	.loc 1 133 1 view .LVU139
	pop	{r4, pc}
.LVL59:
.L51:
	.loc 1 128 5 is_stmt 1 view .LVU140
	.loc 1 129 16 is_stmt 0 view .LVU141
	rsbs	r3, r0, #0
	adcs	r0, r0, r3
.LVL60:
	.loc 1 129 16 view .LVU142
	lsls	r0, r0, #1
	b	.L52
.L56:
	.align	2
.L55:
	.word	1207960576
	.cfi_endproc
.LFE9:
	.size	mux_get_state, .-mux_get_state
	.section	.text.dut,"ax",%progbits
	.align	1
	.p2align 2,,3
	.global	dut
	.syntax unified
	.code	16
	.thumb_func
	.fpu softvfp
	.type	dut, %function
dut:
.LFB10:
	.loc 1 135 16 is_stmt 1 view -0
	.cfi_startproc
	@ args = 0, pretend = 0, frame = 0
	@ frame_needed = 0, uses_anonymous_args = 0
	.loc 1 136 5 view .LVU144
	.loc 1 135 16 is_stmt 0 view .LVU145
	push	{r4, lr}
	.cfi_def_cfa_offset 8
	.cfi_offset 4, -8
	.cfi_offset 14, -4
	.loc 1 136 5 view .LVU146
	movs	r0, #0
	bl	mux_set_state
.LVL61:
	.loc 1 137 5 is_stmt 1 view .LVU147
.LBB47:
.LBI47:
	.loc 1 67 6 view .LVU148
.LBE47:
	.loc 1 68 5 view .LVU149
.LBB50:
.LBB48:
.LBI48:
	.loc 1 67 6 view .LVU150
.LBB49:
	.loc 1 69 9 view .LVU151
	movs	r1, #2
	ldr	r0, .L58
	bl	gpio_set
.LVL62:
	.loc 1 69 9 is_stmt 0 view .LVU152
.LBE49:
.LBE48:
.LBE50:
	.loc 1 138 1 view .LVU153
	@ sp needed
	pop	{r4, pc}
.L59:
	.align	2
.L58:
	.word	1207960576
	.cfi_endproc
.LFE10:
	.size	dut, .-dut
	.section	.text.ts,"ax",%progbits
	.align	1
	.p2align 2,,3
	.global	ts
	.syntax unified
	.code	16
	.thumb_func
	.fpu softvfp
	.type	ts, %function
ts:
.LFB11:
	.loc 1 140 15 is_stmt 1 view -0
	.cfi_startproc
	@ args = 0, pretend = 0, frame = 0
	@ frame_needed = 0, uses_anonymous_args = 0
	.loc 1 141 5 view .LVU155
.LVL63:
.LBB51:
.LBI51:
	.loc 1 110 6 view .LVU156
.LBB52:
	.loc 1 111 5 view .LVU157
.LBE52:
.LBE51:
	.loc 1 140 15 is_stmt 0 view .LVU158
	push	{r4, lr}
	.cfi_def_cfa_offset 8
	.cfi_offset 4, -8
	.cfi_offset 14, -4
.LBB54:
.LBB53:
	bl	mux_set_state.part.1
.LVL64:
	.loc 1 140 15 view .LVU159
.LBE53:
.LBE54:
	.loc 1 142 5 is_stmt 1 view .LVU160
.LBB55:
.LBI55:
	.loc 1 67 6 view .LVU161
.LBB56:
	.loc 1 68 5 view .LVU162
	.loc 1 71 9 view .LVU163
	movs	r1, #2
	ldr	r0, .L61
	bl	gpio_clear
.LVL65:
	.loc 1 71 9 is_stmt 0 view .LVU164
.LBE56:
.LBE55:
	.loc 1 143 1 view .LVU165
	@ sp needed
	pop	{r4, pc}
.L62:
	.align	2
.L61:
	.word	1207960576
	.cfi_endproc
.LFE11:
	.size	ts, .-ts
	.section	.text.lthor_state_from_string,"ax",%progbits
	.align	1
	.p2align 2,,3
	.global	lthor_state_from_string
	.syntax unified
	.code	16
	.thumb_func
	.fpu softvfp
	.type	lthor_state_from_string, %function
lthor_state_from_string:
.LVL66:
.LFB12:
	.loc 1 149 51 is_stmt 1 view -0
	.cfi_startproc
	@ args = 0, pretend = 0, frame = 0
	@ frame_needed = 0, uses_anonymous_args = 0
	.loc 1 150 5 view .LVU167
	.loc 1 149 51 is_stmt 0 view .LVU168
	push	{r4, lr}
	.cfi_def_cfa_offset 8
	.cfi_offset 4, -8
	.cfi_offset 14, -4
	.loc 1 150 9 view .LVU169
	movs	r2, #3
	ldr	r1, .L67
	.loc 1 149 51 view .LVU170
	movs	r4, r0
	.loc 1 150 9 view .LVU171
	bl	strncasecmp
.LVL67:
	.loc 1 150 8 view .LVU172
	cmp	r0, #0
	beq	.L65
	.loc 1 151 5 is_stmt 1 view .LVU173
	.loc 1 151 9 is_stmt 0 view .LVU174
	movs	r2, #3
	ldr	r1, .L67+4
	movs	r0, r4
	bl	strncasecmp
.LVL68:
	.loc 1 151 65 view .LVU175
	subs	r3, r0, #1
	sbcs	r0, r0, r3
	adds	r0, r0, #1
.L64:
	.loc 1 154 1 view .LVU176
	@ sp needed
.LVL69:
	.loc 1 154 1 view .LVU177
	pop	{r4, pc}
.LVL70:
.L65:
	.loc 1 150 64 view .LVU178
	movs	r0, #0
	b	.L64
.L68:
	.align	2
.L67:
	.word	.LC6
	.word	.LC8
	.cfi_endproc
.LFE12:
	.size	lthor_state_from_string, .-lthor_state_from_string
	.section	.text.lthor_state_to_string,"ax",%progbits
	.align	1
	.p2align 2,,3
	.global	lthor_state_to_string
	.syntax unified
	.code	16
	.thumb_func
	.fpu softvfp
	.type	lthor_state_to_string, %function
lthor_state_to_string:
.LVL71:
.LFB13:
	.loc 1 156 48 is_stmt 1 view -0
	.cfi_startproc
	@ args = 0, pretend = 0, frame = 0
	@ frame_needed = 0, uses_anonymous_args = 0
	@ link register save eliminated.
	.loc 1 157 5 view .LVU180
	cmp	r0, #2
	bhi	.L71
	ldr	r3, .L72
	lsls	r0, r0, #2
.LVL72:
	.loc 1 157 5 is_stmt 0 view .LVU181
	ldr	r0, [r0, r3]
.L69:
	.loc 1 167 1 view .LVU182
	@ sp needed
	bx	lr
.LVL73:
.L71:
	.loc 1 156 48 view .LVU183
	ldr	r0, .L72+4
.LVL74:
	.loc 1 156 48 view .LVU184
	b	.L69
.L73:
	.align	2
.L72:
	.word	.LANCHOR1
	.word	.LC10
	.cfi_endproc
.LFE13:
	.size	lthor_state_to_string, .-lthor_state_to_string
	.section	.text.lthor_switch_get_state,"ax",%progbits
	.align	1
	.p2align 2,,3
	.global	lthor_switch_get_state
	.syntax unified
	.code	16
	.thumb_func
	.fpu softvfp
	.type	lthor_switch_get_state, %function
lthor_switch_get_state:
.LFB14:
	.loc 1 169 42 is_stmt 1 view -0
	.cfi_startproc
	@ args = 0, pretend = 0, frame = 0
	@ frame_needed = 0, uses_anonymous_args = 0
	.loc 1 170 5 view .LVU186
	.loc 1 170 12 is_stmt 0 view .LVU187
	movs	r1, #128
	.loc 1 169 42 view .LVU188
	push	{r4, lr}
	.cfi_def_cfa_offset 8
	.cfi_offset 4, -8
	.cfi_offset 14, -4
	.loc 1 170 12 view .LVU189
	lsls	r1, r1, #6
	ldr	r0, .L75
	bl	gpio_get
.LVL75:
	.loc 1 170 86 view .LVU190
	subs	r3, r0, #1
	sbcs	r0, r0, r3
	.loc 1 171 1 view .LVU191
	@ sp needed
	.loc 1 170 86 view .LVU192
	uxtb	r0, r0
	.loc 1 171 1 view .LVU193
	pop	{r4, pc}
.L76:
	.align	2
.L75:
	.word	1207961600
	.cfi_endproc
.LFE14:
	.size	lthor_switch_get_state, .-lthor_switch_get_state
	.section	.text.lthor_switch_set_state,"ax",%progbits
	.align	1
	.p2align 2,,3
	.global	lthor_switch_set_state
	.syntax unified
	.code	16
	.thumb_func
	.fpu softvfp
	.type	lthor_switch_set_state, %function
lthor_switch_set_state:
.LVL76:
.LFB15:
	.loc 1 173 48 is_stmt 1 view -0
	.cfi_startproc
	@ args = 0, pretend = 0, frame = 0
	@ frame_needed = 0, uses_anonymous_args = 0
	.loc 1 174 5 view .LVU195
	.loc 1 175 9 is_stmt 0 view .LVU196
	movs	r1, #128
	.loc 1 173 48 view .LVU197
	push	{r4, lr}
	.cfi_def_cfa_offset 8
	.cfi_offset 4, -8
	.cfi_offset 14, -4
	.loc 1 175 9 view .LVU198
	lsls	r1, r1, #6
	.loc 1 174 8 view .LVU199
	cmp	r0, #0
	bne	.L78
	.loc 1 175 9 is_stmt 1 view .LVU200
	ldr	r0, .L80
.LVL77:
	.loc 1 175 9 is_stmt 0 view .LVU201
	bl	gpio_clear
.LVL78:
.L77:
	.loc 1 179 1 view .LVU202
	@ sp needed
	pop	{r4, pc}
.LVL79:
.L78:
	.loc 1 177 9 is_stmt 1 view .LVU203
	ldr	r0, .L80
.LVL80:
	.loc 1 177 9 is_stmt 0 view .LVU204
	bl	gpio_set
.LVL81:
	.loc 1 179 1 view .LVU205
	b	.L77
.L81:
	.align	2
.L80:
	.word	1207961600
	.cfi_endproc
.LFE15:
	.size	lthor_switch_set_state, .-lthor_switch_set_state
	.section	.text.lthor_id_get_state,"ax",%progbits
	.align	1
	.p2align 2,,3
	.global	lthor_id_get_state
	.syntax unified
	.code	16
	.thumb_func
	.fpu softvfp
	.type	lthor_id_get_state, %function
lthor_id_get_state:
.LFB16:
	.loc 1 181 38 is_stmt 1 view -0
	.cfi_startproc
	@ args = 0, pretend = 0, frame = 0
	@ frame_needed = 0, uses_anonymous_args = 0
	.loc 1 182 5 view .LVU207
	.loc 1 182 12 is_stmt 0 view .LVU208
	movs	r1, #128
	.loc 1 181 38 view .LVU209
	push	{r4, lr}
	.cfi_def_cfa_offset 8
	.cfi_offset 4, -8
	.cfi_offset 14, -4
	.loc 1 182 12 view .LVU210
	lsls	r1, r1, #7
	ldr	r0, .L83
	bl	gpio_get
.LVL82:
	.loc 1 182 86 view .LVU211
	subs	r3, r0, #1
	sbcs	r0, r0, r3
	.loc 1 183 1 view .LVU212
	@ sp needed
	.loc 1 182 86 view .LVU213
	uxtb	r0, r0
	.loc 1 183 1 view .LVU214
	pop	{r4, pc}
.L84:
	.align	2
.L83:
	.word	1207961600
	.cfi_endproc
.LFE16:
	.size	lthor_id_get_state, .-lthor_id_get_state
	.section	.text.lthor_id_set_state,"ax",%progbits
	.align	1
	.p2align 2,,3
	.global	lthor_id_set_state
	.syntax unified
	.code	16
	.thumb_func
	.fpu softvfp
	.type	lthor_id_set_state, %function
lthor_id_set_state:
.LVL83:
.LFB17:
	.loc 1 185 44 is_stmt 1 view -0
	.cfi_startproc
	@ args = 0, pretend = 0, frame = 0
	@ frame_needed = 0, uses_anonymous_args = 0
	.loc 1 186 5 view .LVU216
	.loc 1 187 9 is_stmt 0 view .LVU217
	movs	r1, #128
	.loc 1 185 44 view .LVU218
	push	{r4, lr}
	.cfi_def_cfa_offset 8
	.cfi_offset 4, -8
	.cfi_offset 14, -4
	.loc 1 187 9 view .LVU219
	lsls	r1, r1, #7
	.loc 1 186 8 view .LVU220
	cmp	r0, #0
	bne	.L86
	.loc 1 187 9 is_stmt 1 view .LVU221
	ldr	r0, .L88
.LVL84:
	.loc 1 187 9 is_stmt 0 view .LVU222
	bl	gpio_clear
.LVL85:
.L85:
	.loc 1 191 1 view .LVU223
	@ sp needed
	pop	{r4, pc}
.LVL86:
.L86:
	.loc 1 189 9 is_stmt 1 view .LVU224
	ldr	r0, .L88
.LVL87:
	.loc 1 189 9 is_stmt 0 view .LVU225
	bl	gpio_set
.LVL88:
	.loc 1 191 1 view .LVU226
	b	.L85
.L89:
	.align	2
.L88:
	.word	1207961600
	.cfi_endproc
.LFE17:
	.size	lthor_id_set_state, .-lthor_id_set_state
	.section	.text.lthor_vbus_get_state,"ax",%progbits
	.align	1
	.p2align 2,,3
	.global	lthor_vbus_get_state
	.syntax unified
	.code	16
	.thumb_func
	.fpu softvfp
	.type	lthor_vbus_get_state, %function
lthor_vbus_get_state:
.LFB18:
	.loc 1 193 40 is_stmt 1 view -0
	.cfi_startproc
	@ args = 0, pretend = 0, frame = 0
	@ frame_needed = 0, uses_anonymous_args = 0
	.loc 1 194 5 view .LVU228
	.loc 1 194 12 is_stmt 0 view .LVU229
	movs	r1, #128
	.loc 1 193 40 view .LVU230
	push	{r4, lr}
	.cfi_def_cfa_offset 8
	.cfi_offset 4, -8
	.cfi_offset 14, -4
	.loc 1 194 12 view .LVU231
	lsls	r1, r1, #8
	ldr	r0, .L91
	bl	gpio_get
.LVL89:
	.loc 1 194 84 view .LVU232
	subs	r3, r0, #1
	sbcs	r0, r0, r3
	.loc 1 195 1 view .LVU233
	@ sp needed
	.loc 1 194 84 view .LVU234
	uxtb	r0, r0
	.loc 1 195 1 view .LVU235
	pop	{r4, pc}
.L92:
	.align	2
.L91:
	.word	1207961600
	.cfi_endproc
.LFE18:
	.size	lthor_vbus_get_state, .-lthor_vbus_get_state
	.section	.text.lthor_vbus_set_state,"ax",%progbits
	.align	1
	.p2align 2,,3
	.global	lthor_vbus_set_state
	.syntax unified
	.code	16
	.thumb_func
	.fpu softvfp
	.type	lthor_vbus_set_state, %function
lthor_vbus_set_state:
.LVL90:
.LFB19:
	.loc 1 197 46 is_stmt 1 view -0
	.cfi_startproc
	@ args = 0, pretend = 0, frame = 0
	@ frame_needed = 0, uses_anonymous_args = 0
	.loc 1 198 5 view .LVU237
	.loc 1 199 9 is_stmt 0 view .LVU238
	movs	r1, #128
	.loc 1 197 46 view .LVU239
	push	{r4, lr}
	.cfi_def_cfa_offset 8
	.cfi_offset 4, -8
	.cfi_offset 14, -4
	.loc 1 199 9 view .LVU240
	lsls	r1, r1, #8
	.loc 1 198 8 view .LVU241
	cmp	r0, #0
	bne	.L94
	.loc 1 199 9 is_stmt 1 view .LVU242
	ldr	r0, .L96
.LVL91:
	.loc 1 199 9 is_stmt 0 view .LVU243
	bl	gpio_clear
.LVL92:
.L93:
	.loc 1 203 1 view .LVU244
	@ sp needed
	pop	{r4, pc}
.LVL93:
.L94:
	.loc 1 201 9 is_stmt 1 view .LVU245
	ldr	r0, .L96
.LVL94:
	.loc 1 201 9 is_stmt 0 view .LVU246
	bl	gpio_set
.LVL95:
	.loc 1 203 1 view .LVU247
	b	.L93
.L97:
	.align	2
.L96:
	.word	1207961600
	.cfi_endproc
.LFE19:
	.size	lthor_vbus_set_state, .-lthor_vbus_set_state
	.section	.text.lthor_do_combo,"ax",%progbits
	.align	1
	.p2align 2,,3
	.global	lthor_do_combo
	.syntax unified
	.code	16
	.thumb_func
	.fpu softvfp
	.type	lthor_do_combo, %function
lthor_do_combo:
.LVL96:
.LFB20:
	.loc 1 205 40 is_stmt 1 view -0
	.cfi_startproc
	@ args = 0, pretend = 0, frame = 0
	@ frame_needed = 0, uses_anonymous_args = 0
	@ link register save eliminated.
	.loc 1 206 5 view .LVU249
	.loc 1 208 1 is_stmt 0 view .LVU250
	@ sp needed
	bx	lr
	.cfi_endproc
.LFE20:
	.size	lthor_do_combo, .-lthor_do_combo
	.section	.rodata.CSWTCH.2,"a"
	.align	2
	.set	.LANCHOR0,. + 0
	.type	CSWTCH.2, %object
	.size	CSWTCH.2, 12
CSWTCH.2:
	.word	.LC2
	.word	.LC0
	.word	.LC2
	.section	.rodata.CSWTCH.3,"a"
	.align	2
	.set	.LANCHOR1,. + 0
	.type	CSWTCH.3, %object
	.size	CSWTCH.3, 12
CSWTCH.3:
	.word	.LC6
	.word	.LC8
	.word	.LC10
	.section	.rodata.lthor_state_from_string.str1.4,"aMS",%progbits,1
	.align	2
.LC6:
	.ascii	"USB\000"
.LC8:
	.ascii	"UART\000"
	.section	.rodata.lthor_state_to_string.str1.4,"aMS",%progbits,1
	.align	2
.LC10:
	.ascii	"INVALID\000"
	.section	.rodata.power_state_from_string.str1.4,"aMS",%progbits,1
	.align	2
.LC0:
	.ascii	"ON\000"
	.space	1
.LC2:
	.ascii	"OFF\000"
	.text
.Letext0:
	.file 2 "/home/a.malinowsk2/Programs/gcc-arm-none-eabi-8-2018-q4-major/arm-none-eabi/include/machine/_default_types.h"
	.file 3 "/home/a.malinowsk2/Programs/gcc-arm-none-eabi-8-2018-q4-major/arm-none-eabi/include/sys/lock.h"
	.file 4 "/home/a.malinowsk2/Programs/gcc-arm-none-eabi-8-2018-q4-major/arm-none-eabi/include/sys/_types.h"
	.file 5 "/home/a.malinowsk2/Programs/gcc-arm-none-eabi-8-2018-q4-major/lib/gcc/arm-none-eabi/8.2.1/include/stddef.h"
	.file 6 "/home/a.malinowsk2/Programs/gcc-arm-none-eabi-8-2018-q4-major/arm-none-eabi/include/sys/reent.h"
	.file 7 "/home/a.malinowsk2/Programs/gcc-arm-none-eabi-8-2018-q4-major/arm-none-eabi/include/sys/_stdint.h"
	.file 8 "../include/xprintf.h"
	.file 9 "../include/control.h"
	.file 10 "../libopencm3/include/libopencm3/stm32/common/gpio_common_all.h"
	.file 11 "/home/a.malinowsk2/Programs/gcc-arm-none-eabi-8-2018-q4-major/arm-none-eabi/include/strings.h"
	.file 12 "../FreeRTOS/Source/include/task.h"
	.file 13 "../libopencm3/include/libopencm3/stm32/common/gpio_common_f234.h"