	.cpu cortex-m0
	.eabi_attribute 20, 1
	.eabi_attribute 21, 1
	.eabi_attribute 23, 3
	.eabi_attribute 24, 1
	.eabi_attribute 25, 1
	.eabi_attribute 26, 1
	.eabi_attribute 30, 2
	.eabi_attribute 34, 0
	.eabi_attribute 18, 4
	.file	"handlers.c"
	.text
.Ltext0:
	.cfi_sections	.debug_frame
	.section	.text.vApplicationMallocFailedHook,"ax",%progbits
	.align	1
	.p2align 2,,3
	.global	vApplicationMallocFailedHook
	.arch armv6s-m
	.syntax unified
	.code	16
	.thumb_func
	.fpu softvfp
	.type	vApplicationMallocFailedHook, %function
vApplicationMallocFailedHook:
.LFB0:
	.file 1 "handlers.c"
	.loc 1 40 43 view -0
	.cfi_startproc
	@ Volatile: function does not return.
	@ args = 0, pretend = 0, frame = 0
	@ frame_needed = 0, uses_anonymous_args = 0
	.loc 1 41 2 view .LVU1
	.loc 1 40 43 is_stmt 0 view .LVU2
	push	{r4, lr}
	.cfi_def_cfa_offset 8
	.cfi_offset 4, -8
	.cfi_offset 14, -4
	.loc 1 41 2 view .LVU3
	ldr	r0, .L4
	bl	xprintf
.LVL0:
.L2:
	.loc 1 42 5 is_stmt 1 discriminator 1 view .LVU4
	.loc 1 42 15 discriminator 1 view .LVU5
	.loc 1 42 5 discriminator 1 view .LVU6
	.loc 1 42 15 discriminator 1 view .LVU7
	b	.L2
.L5:
	.align	2
.L4:
	.word	.LC0
	.cfi_endproc
.LFE0:
	.size	vApplicationMallocFailedHook, .-vApplicationMallocFailedHook
	.section	.text.vApplicationIdleHook,"ax",%progbits
	.align	1
	.p2align 2,,3
	.global	vApplicationIdleHook
	.syntax unified
	.code	16
	.thumb_func
	.fpu softvfp
	.type	vApplicationIdleHook, %function
vApplicationIdleHook:
.LFB1:
	.loc 1 46 35 view -0
	.cfi_startproc
	@ args = 0, pretend = 0, frame = 0
	@ frame_needed = 0, uses_anonymous_args = 0
	@ link register save eliminated.
	.loc 1 48 1 view .LVU9
	@ sp needed
	bx	lr
	.cfi_endproc
.LFE1:
	.size	vApplicationIdleHook, .-vApplicationIdleHook
	.section	.text.vApplicationStackOverflowHook,"ax",%progbits
	.align	1
	.p2align 2,,3
	.global	vApplicationStackOverflowHook
	.syntax unified
	.code	16
	.thumb_func
	.fpu softvfp
	.type	vApplicationStackOverflowHook, %function
vApplicationStackOverflowHook:
.LVL1:
.LFB2:
	.loc 1 51 75 view -0
	.cfi_startproc
	@ args = 0, pretend = 0, frame = 0
	@ frame_needed = 0, uses_anonymous_args = 0
	.loc 1 52 5 view .LVU11
	.loc 1 53 5 view .LVU12
	.loc 1 54 2 view .LVU13
	.loc 1 51 75 is_stmt 0 view .LVU14
	push	{r4, lr}
	.cfi_def_cfa_offset 8
	.cfi_offset 4, -8
	.cfi_offset 14, -4
	.loc 1 54 2 view .LVU15
	ldr	r0, .L8
.LVL2:
	.loc 1 54 2 view .LVU16
	bl	xprintf
.LVL3:
	.loc 1 55 1 view .LVU17
	@ sp needed
	pop	{r4, pc}
.L9:
	.align	2
.L8:
	.word	.LC2
	.cfi_endproc
.LFE2:
	.size	vApplicationStackOverflowHook, .-vApplicationStackOverflowHook
	.section	.text.vApplicationTickHook,"ax",%progbits
	.align	1
	.p2align 2,,3
	.global	vApplicationTickHook
	.syntax unified
	.code	16
	.thumb_func
	.fpu softvfp
	.type	vApplicationTickHook, %function
vApplicationTickHook:
.LFB8:
	.cfi_startproc
	@ args = 0, pretend = 0, frame = 0
	@ frame_needed = 0, uses_anonymous_args = 0
	@ link register save eliminated.
	@ sp needed
	bx	lr
	.cfi_endproc
.LFE8:
	.size	vApplicationTickHook, .-vApplicationTickHook
	.section	.text.sv_call_handler,"ax",%progbits
	.align	1
	.p2align 2,,3
	.global	sv_call_handler
	.syntax unified
	.code	16
	.thumb_func
	.fpu softvfp
	.type	sv_call_handler, %function
sv_call_handler:
.LFB4:
	.loc 1 61 28 is_stmt 1 view -0
	.cfi_startproc
	@ args = 0, pretend = 0, frame = 0
	@ frame_needed = 0, uses_anonymous_args = 0
	.loc 1 62 7 view .LVU19
	.loc 1 61 28 is_stmt 0 view .LVU20
	push	{r4, lr}
	.cfi_def_cfa_offset 8
	.cfi_offset 4, -8
	.cfi_offset 14, -4
	.loc 1 62 7 view .LVU21
	bl	SVC_Handler
.LVL4:
	.loc 1 63 1 view .LVU22
	@ sp needed
	pop	{r4, pc}
	.cfi_endproc
.LFE4:
	.size	sv_call_handler, .-sv_call_handler
	.section	.text.pend_sv_handler,"ax",%progbits
	.align	1
	.p2align 2,,3
	.global	pend_sv_handler
	.syntax unified
	.code	16
	.thumb_func
	.fpu softvfp
	.type	pend_sv_handler, %function
pend_sv_handler:
.LFB5:
	.loc 1 64 29 is_stmt 1 view -0
	.cfi_startproc
	@ args = 0, pretend = 0, frame = 0
	@ frame_needed = 0, uses_anonymous_args = 0
	.loc 1 65 7 view .LVU24
	.loc 1 64 29 is_stmt 0 view .LVU25
	push	{r4, lr}
	.cfi_def_cfa_offset 8
	.cfi_offset 4, -8
	.cfi_offset 14, -4
	.loc 1 65 7 view .LVU26
	bl	PendSV_Handler
.LVL5:
	.loc 1 66 1 view .LVU27
	@ sp needed
	pop	{r4, pc}
	.cfi_endproc
.LFE5:
	.size	pend_sv_handler, .-pend_sv_handler
	.section	.text.sys_tick_handler,"ax",%progbits
	.align	1
	.p2align 2,,3
	.global	sys_tick_handler
	.syntax unified
	.code	16
	.thumb_func
	.fpu softvfp
	.type	sys_tick_handler, %function
sys_tick_handler:
.LFB6:
	.loc 1 67 29 is_stmt 1 view -0
	.cfi_startproc
	@ args = 0, pretend = 0, frame = 0
	@ frame_needed = 0, uses_anonymous_args = 0
	.loc 1 68 7 view .LVU29
	.loc 1 67 29 is_stmt 0 view .LVU30
	push	{r4, lr}
	.cfi_def_cfa_offset 8
	.cfi_offset 4, -8
	.cfi_offset 14, -4
	.loc 1 68 7 view .LVU31
	bl	SysTick_Handler
.LVL6:
	.loc 1 69 1 view .LVU32
	@ sp needed
	pop	{r4, pc}
	.cfi_endproc
.LFE6:
	.size	sys_tick_handler, .-sys_tick_handler
	.section	.rodata.vApplicationMallocFailedHook.str1.4,"aMS",%progbits,1
	.align	2
.LC0:
	.ascii	"Malloc fialed\012\000"
	.section	.rodata.vApplicationStackOverflowHook.str1.4,"aMS",%progbits,1
	.align	2
.LC2:
	.ascii	"Stack overflow: %s\012\000"
	.text
.Letext0:
	.file 2 "../FreeRTOS/Source/include/task.h"