	.cpu cortex-m0
	.eabi_attribute 20, 1
	.eabi_attribute 21, 1
	.eabi_attribute 23, 3
	.eabi_attribute 24, 1
	.eabi_attribute 25, 1
	.eabi_attribute 26, 1
	.eabi_attribute 30, 2
	.eabi_attribute 34, 0
	.eabi_attribute 18, 4
	.file	"keys.c"
	.text
.Ltext0:
	.cfi_sections	.debug_frame
	.section	.text.keys_setup,"ax",%progbits
	.align	1
	.p2align 2,,3
	.global	keys_setup
	.arch armv6s-m
	.syntax unified
	.code	16
	.thumb_func
	.fpu softvfp
	.type	keys_setup, %function
keys_setup:
.LFB0:
	.file 1 "keys.c"
	.loc 1 33 23 view -0
	.cfi_startproc
	@ args = 0, pretend = 0, frame = 0
	@ frame_needed = 0, uses_anonymous_args = 0
	.loc 1 34 5 view .LVU1
	.loc 1 33 23 is_stmt 0 view .LVU2
	push	{r4, r5, r6, lr}
	.cfi_def_cfa_offset 16
	.cfi_offset 4, -16
	.cfi_offset 5, -12
	.cfi_offset 6, -8
	.cfi_offset 14, -4
	.loc 1 34 5 view .LVU3
	movs	r0, #7
	bl	nvic_enable_irq
.LVL0:
	.loc 1 36 5 is_stmt 1 view .LVU4
	.loc 1 38 5 is_stmt 0 view .LVU5
	movs	r5, #128
	.loc 1 36 5 view .LVU6
	movs	r3, #192
	.loc 1 39 5 view .LVU7
	movs	r4, #128
	.loc 1 36 5 view .LVU8
	ldr	r6, .L3
	lsls	r3, r3, #6
	movs	r2, #0
	.loc 1 38 5 view .LVU9
	lsls	r5, r5, #5
	.loc 1 36 5 view .LVU10
	movs	r0, r6
	movs	r1, #0
	bl	gpio_mode_setup
.LVL1:
	.loc 1 38 5 is_stmt 1 view .LVU11
	.loc 1 39 5 is_stmt 0 view .LVU12
	lsls	r4, r4, #6
	.loc 1 38 5 view .LVU13
	movs	r1, r6
	movs	r0, r5
	bl	exti_select_source
.LVL2:
	.loc 1 39 5 is_stmt 1 view .LVU14
	movs	r1, r6
	movs	r0, r4
	bl	exti_select_source
.LVL3:
	.loc 1 40 5 view .LVU15
	movs	r0, r5
	movs	r1, #1
	bl	exti_set_trigger
.LVL4:
	.loc 1 41 5 view .LVU16
	movs	r1, #1
	movs	r0, r4
	bl	exti_set_trigger
.LVL5:
	.loc 1 42 5 view .LVU17
	movs	r0, r5
	bl	exti_enable_request
.LVL6:
	.loc 1 43 5 view .LVU18
	movs	r0, r4
	bl	exti_enable_request
.LVL7:
	.loc 1 44 1 is_stmt 0 view .LVU19
	@ sp needed
	pop	{r4, r5, r6, pc}
.L4:
	.align	2
.L3:
	.word	1207960576
	.cfi_endproc
.LFE0:
	.size	keys_setup, .-keys_setup
	.section	.text.exti4_15_isr,"ax",%progbits
	.align	1
	.p2align 2,,3
	.global	exti4_15_isr
	.syntax unified
	.code	16
	.thumb_func
	.fpu softvfp
	.type	exti4_15_isr, %function
exti4_15_isr:
.LFB2:
	.loc 1 54 25 is_stmt 1 view -0
	.cfi_startproc
	@ args = 0, pretend = 0, frame = 0
	@ frame_needed = 0, uses_anonymous_args = 0
	.loc 1 55 5 view .LVU21
	.loc 1 55 9 is_stmt 0 view .LVU22
	movs	r0, #128
	.loc 1 54 25 view .LVU23
	push	{r4, lr}
	.cfi_def_cfa_offset 8
	.cfi_offset 4, -8
	.cfi_offset 14, -4
	.loc 1 55 9 view .LVU24
	lsls	r0, r0, #5
	bl	exti_get_flag_status
.LVL8:
	.loc 1 59 5 is_stmt 1 view .LVU25
	.loc 1 59 9 is_stmt 0 view .LVU26
	movs	r0, #128
	lsls	r0, r0, #6
	bl	exti_get_flag_status
.LVL9:
	.loc 1 63 5 is_stmt 1 view .LVU27
	movs	r0, #192
	lsls	r0, r0, #6
	bl	exti_reset_request
.LVL10:
	.loc 1 64 1 is_stmt 0 view .LVU28
	@ sp needed
	pop	{r4, pc}
	.cfi_endproc
.LFE2:
	.size	exti4_15_isr, .-exti4_15_isr
	.section	.text.keys_is_1_pressed,"ax",%progbits
	.align	1
	.p2align 2,,3
	.global	keys_is_1_pressed
	.syntax unified
	.code	16
	.thumb_func
	.fpu softvfp
	.type	keys_is_1_pressed, %function
keys_is_1_pressed:
.LFB3:
	.loc 1 66 29 is_stmt 1 view -0
	.cfi_startproc
	@ args = 0, pretend = 0, frame = 0
	@ frame_needed = 0, uses_anonymous_args = 0
	.loc 1 67 5 view .LVU30
	.loc 1 67 13 is_stmt 0 view .LVU31
	movs	r1, #128
	.loc 1 66 29 view .LVU32
	push	{r4, lr}
	.cfi_def_cfa_offset 8
	.cfi_offset 4, -8
	.cfi_offset 14, -4
	.loc 1 67 13 view .LVU33
	lsls	r1, r1, #5
	ldr	r0, .L7
	bl	gpio_get
.LVL11:
	.loc 1 67 12 view .LVU34
	rsbs	r3, r0, #0
	adcs	r0, r0, r3
	.loc 1 68 1 view .LVU35
	@ sp needed
	.loc 1 67 12 view .LVU36
	uxtb	r0, r0
	.loc 1 68 1 view .LVU37
	pop	{r4, pc}
.L8:
	.align	2
.L7:
	.word	1207960576
	.cfi_endproc
.LFE3:
	.size	keys_is_1_pressed, .-keys_is_1_pressed
	.section	.text.keys_is_2_pressed,"ax",%progbits
	.align	1
	.p2align 2,,3
	.global	keys_is_2_pressed
	.syntax unified
	.code	16
	.thumb_func
	.fpu softvfp
	.type	keys_is_2_pressed, %function
keys_is_2_pressed:
.LFB4:
	.loc 1 70 29 is_stmt 1 view -0
	.cfi_startproc
	@ args = 0, pretend = 0, frame = 0
	@ frame_needed = 0, uses_anonymous_args = 0
	.loc 1 71 5 view .LVU39
	.loc 1 71 13 is_stmt 0 view .LVU40
	movs	r1, #128
	.loc 1 70 29 view .LVU41
	push	{r4, lr}
	.cfi_def_cfa_offset 8
	.cfi_offset 4, -8
	.cfi_offset 14, -4
	.loc 1 71 13 view .LVU42
	lsls	r1, r1, #6
	ldr	r0, .L10
	bl	gpio_get
.LVL12:
	.loc 1 71 12 view .LVU43
	rsbs	r3, r0, #0
	adcs	r0, r0, r3
	.loc 1 72 1 view .LVU44
	@ sp needed
	.loc 1 71 12 view .LVU45
	uxtb	r0, r0
	.loc 1 72 1 view .LVU46
	pop	{r4, pc}
.L11:
	.align	2
.L10:
	.word	1207960576
	.cfi_endproc
.LFE4:
	.size	keys_is_2_pressed, .-keys_is_2_pressed
	.text
.Letext0:
	.file 2 "/home/a.malinowsk2/Programs/gcc-arm-none-eabi-8-2018-q4-major/arm-none-eabi/include/machine/_default_types.h"
	.file 3 "/home/a.malinowsk2/Programs/gcc-arm-none-eabi-8-2018-q4-major/arm-none-eabi/include/sys/_stdint.h"
	.file 4 "../FreeRTOS/Source/portable/GCC/ARM_CM0/portmacro.h"
	.file 5 "../FreeRTOS/Source/include/queue.h"
	.file 6 "../include/uart.h"
	.file 7 "../libopencm3/include/libopencm3/stm32/common/gpio_common_all.h"
	.file 8 "../libopencm3/include/libopencm3/stm32/common/exti_common_all.h"
	.file 9 "../libopencm3/include/libopencm3/cm3/nvic.h"
	.file 10 "../libopencm3/include/libopencm3/stm32/common/gpio_common_f234.h"