	.cpu cortex-m0
	.eabi_attribute 20, 1
	.eabi_attribute 21, 1
	.eabi_attribute 23, 3
	.eabi_attribute 24, 1
	.eabi_attribute 25, 1
	.eabi_attribute 26, 1
	.eabi_attribute 30, 2
	.eabi_attribute 34, 0
	.eabi_attribute 18, 4
	.file	"list.c"
	.text
.Ltext0:
	.cfi_sections	.debug_frame
	.section	.text.vListInitialise,"ax",%progbits
	.align	1
	.p2align 2,,3
	.global	vListInitialise
	.arch armv6s-m
	.syntax unified
	.code	16
	.thumb_func
	.fpu softvfp
	.type	vListInitialise, %function
vListInitialise:
.LVL0:
.LFB0:
	.file 1 "../FreeRTOS/Source/list.c"
	.loc 1 38 1 view -0
	.cfi_startproc
	@ args = 0, pretend = 0, frame = 0
	@ frame_needed = 0, uses_anonymous_args = 0
	@ link register save eliminated.
	.loc 1 42 2 view .LVU1
	.loc 1 42 37 is_stmt 0 view .LVU2
	movs	r3, r0
	.loc 1 46 30 view .LVU3
	movs	r2, #1
	.loc 1 42 37 view .LVU4
	adds	r3, r3, #8
	.loc 1 42 18 view .LVU5
	str	r3, [r0, #4]
	.loc 1 46 2 is_stmt 1 view .LVU6
	.loc 1 50 26 is_stmt 0 view .LVU7
	str	r3, [r0, #12]
	.loc 1 51 30 view .LVU8
	str	r3, [r0, #16]
	.loc 1 53 26 view .LVU9
	movs	r3, #0
	.loc 1 46 30 view .LVU10
	rsbs	r2, r2, #0
	str	r2, [r0, #8]
	.loc 1 50 2 is_stmt 1 view .LVU11
	.loc 1 51 2 view .LVU12
	.loc 1 53 2 view .LVU13
	.loc 1 53 26 is_stmt 0 view .LVU14
	str	r3, [r0]
	.loc 1 57 2 is_stmt 1 view .LVU15
	.loc 1 58 2 view .LVU16
	.loc 1 59 1 is_stmt 0 view .LVU17
	@ sp needed
	bx	lr
	.cfi_endproc
.LFE0:
	.size	vListInitialise, .-vListInitialise
	.section	.text.vListInitialiseItem,"ax",%progbits
	.align	1
	.p2align 2,,3
	.global	vListInitialiseItem
	.syntax unified
	.code	16
	.thumb_func
	.fpu softvfp
	.type	vListInitialiseItem, %function
vListInitialiseItem:
.LVL1:
.LFB1:
	.loc 1 63 1 is_stmt 1 view -0
	.cfi_startproc
	@ args = 0, pretend = 0, frame = 0
	@ frame_needed = 0, uses_anonymous_args = 0
	@ link register save eliminated.
	.loc 1 65 2 view .LVU19
	.loc 1 65 22 is_stmt 0 view .LVU20
	movs	r3, #0
	.loc 1 71 1 view .LVU21
	@ sp needed
	.loc 1 65 22 view .LVU22
	str	r3, [r0, #16]
	.loc 1 69 2 is_stmt 1 view .LVU23
	.loc 1 70 2 view .LVU24
	.loc 1 71 1 is_stmt 0 view .LVU25
	bx	lr
	.cfi_endproc
.LFE1:
	.size	vListInitialiseItem, .-vListInitialiseItem
	.section	.text.vListInsertEnd,"ax",%progbits
	.align	1
	.p2align 2,,3
	.global	vListInsertEnd
	.syntax unified
	.code	16
	.thumb_func
	.fpu softvfp
	.type	vListInsertEnd, %function
vListInsertEnd:
.LVL2:
.LFB2:
	.loc 1 75 1 is_stmt 1 view -0
	.cfi_startproc
	@ args = 0, pretend = 0, frame = 0
	@ frame_needed = 0, uses_anonymous_args = 0
	@ link register save eliminated.
	.loc 1 76 1 view .LVU27
	.loc 1 76 20 is_stmt 0 view .LVU28
	ldr	r3, [r0, #4]
.LVL3:
	.loc 1 81 2 is_stmt 1 view .LVU29
	.loc 1 82 2 view .LVU30
	.loc 1 87 2 view .LVU31
	.loc 1 100 1 is_stmt 0 view .LVU32
	@ sp needed
	.loc 1 88 28 view .LVU33
	ldr	r2, [r3, #8]
	.loc 1 87 24 view .LVU34
	str	r3, [r1, #4]
	.loc 1 88 2 is_stmt 1 view .LVU35
	.loc 1 88 28 is_stmt 0 view .LVU36
	str	r2, [r1, #8]
	.loc 1 91 2 is_stmt 1 view .LVU37
	.loc 1 93 2 view .LVU38
	.loc 1 93 30 is_stmt 0 view .LVU39
	ldr	r2, [r3, #8]
	str	r1, [r2, #4]
	.loc 1 94 2 is_stmt 1 view .LVU40
	.loc 1 94 22 is_stmt 0 view .LVU41
	str	r1, [r3, #8]
	.loc 1 97 2 is_stmt 1 view .LVU42
	.loc 1 99 10 is_stmt 0 view .LVU43
	ldr	r3, [r0]
.LVL4:
	.loc 1 97 29 view .LVU44
	str	r0, [r1, #16]
	.loc 1 99 2 is_stmt 1 view .LVU45
	.loc 1 99 29 is_stmt 0 view .LVU46
	adds	r3, r3, #1
	str	r3, [r0]
	.loc 1 100 1 view .LVU47
	bx	lr
	.cfi_endproc
.LFE2:
	.size	vListInsertEnd, .-vListInsertEnd
	.section	.text.vListInsert,"ax",%progbits
	.align	1
	.p2align 2,,3
	.global	vListInsert
	.syntax unified
	.code	16
	.thumb_func
	.fpu softvfp
	.type	vListInsert, %function
vListInsert:
.LVL5:
.LFB3:
	.loc 1 104 1 is_stmt 1 view -0
	.cfi_startproc
	@ args = 0, pretend = 0, frame = 0
	@ frame_needed = 0, uses_anonymous_args = 0
	.loc 1 105 1 view .LVU49
	.loc 1 106 1 view .LVU50
	.loc 1 150 19 is_stmt 0 view .LVU51
	movs	r2, r0
	.loc 1 104 1 view .LVU52
	push	{r4, r5, lr}
	.cfi_def_cfa_offset 12
	.cfi_offset 4, -12
	.cfi_offset 5, -8
	.cfi_offset 14, -4
	.loc 1 106 18 view .LVU53
	ldr	r4, [r1]
.LVL6:
	.loc 1 111 2 is_stmt 1 view .LVU54
	.loc 1 112 2 view .LVU55
	.loc 1 122 2 view .LVU56
	.loc 1 150 19 is_stmt 0 view .LVU57
	adds	r2, r2, #8
	.loc 1 122 4 view .LVU58
	adds	r3, r4, #1
	bne	.L8
	b	.L11
.LVL7:
.L9:
	.loc 1 122 4 view .LVU59
	movs	r2, r3
.LVL8:
.L8:
	.loc 1 150 71 discriminator 1 view .LVU60
	ldr	r3, [r2, #4]
	.loc 1 150 3 discriminator 1 view .LVU61
	ldr	r5, [r3]
	cmp	r5, r4
	bls	.L9
.L7:
	.loc 1 157 2 is_stmt 1 view .LVU62
	.loc 1 157 24 is_stmt 0 view .LVU63
	str	r3, [r1, #4]
	.loc 1 158 2 is_stmt 1 view .LVU64
	.loc 1 158 36 is_stmt 0 view .LVU65
	str	r1, [r3, #8]
	.loc 1 159 2 is_stmt 1 view .LVU66
	.loc 1 166 10 is_stmt 0 view .LVU67
	ldr	r3, [r0]
	.loc 1 159 28 view .LVU68
	str	r2, [r1, #8]
	.loc 1 160 2 is_stmt 1 view .LVU69
	.loc 1 166 29 is_stmt 0 view .LVU70
	adds	r3, r3, #1
	.loc 1 160 21 view .LVU71
	str	r1, [r2, #4]
	.loc 1 164 2 is_stmt 1 view .LVU72
	.loc 1 167 1 is_stmt 0 view .LVU73
	@ sp needed
	.loc 1 164 29 view .LVU74
	str	r0, [r1, #16]
	.loc 1 166 2 is_stmt 1 view .LVU75
	.loc 1 166 29 is_stmt 0 view .LVU76
	str	r3, [r0]
.LVL9:
	.loc 1 167 1 view .LVU77
	pop	{r4, r5, pc}
.LVL10:
.L11:
	.loc 1 124 3 is_stmt 1 view .LVU78
	.loc 1 124 14 is_stmt 0 view .LVU79
	ldr	r2, [r0, #16]
.LVL11:
	.loc 1 124 14 view .LVU80
	ldr	r3, [r2, #4]
	b	.L7
	.cfi_endproc
.LFE3:
	.size	vListInsert, .-vListInsert
	.section	.text.uxListRemove,"ax",%progbits
	.align	1
	.p2align 2,,3
	.global	uxListRemove
	.syntax unified
	.code	16
	.thumb_func
	.fpu softvfp
	.type	uxListRemove, %function
uxListRemove:
.LVL12:
.LFB4:
	.loc 1 171 1 is_stmt 1 view -0
	.cfi_startproc
	@ args = 0, pretend = 0, frame = 0
	@ frame_needed = 0, uses_anonymous_args = 0
	@ link register save eliminated.
	.loc 1 174 1 view .LVU82
	.loc 1 174 16 is_stmt 0 view .LVU83
	ldr	r3, [r0, #16]
.LVL13:
	.loc 1 176 2 is_stmt 1 view .LVU84
	.loc 1 176 16 is_stmt 0 view .LVU85
	ldr	r1, [r0, #4]
	.loc 1 176 53 view .LVU86
	ldr	r2, [r0, #8]
	.loc 1 176 37 view .LVU87
	str	r2, [r1, #8]
	.loc 1 177 2 is_stmt 1 view .LVU88
	.loc 1 177 37 is_stmt 0 view .LVU89
	str	r1, [r2, #4]
	.loc 1 180 2 is_stmt 1 view .LVU90
	.loc 1 183 2 view .LVU91
	.loc 1 183 4 is_stmt 0 view .LVU92
	ldr	r1, [r3, #4]
	cmp	r1, r0
	beq	.L14
.L13:
	.loc 1 189 3 is_stmt 1 view .LVU93
	.loc 1 192 2 view .LVU94
	.loc 1 192 30 is_stmt 0 view .LVU95
	movs	r2, #0
	str	r2, [r0, #16]
	.loc 1 193 2 is_stmt 1 view .LVU96
	.loc 1 193 10 is_stmt 0 view .LVU97
	ldr	r2, [r3]
	.loc 1 196 1 view .LVU98
	@ sp needed
	.loc 1 193 29 view .LVU99
	subs	r2, r2, #1
	str	r2, [r3]
	.loc 1 195 2 is_stmt 1 view .LVU100
	.loc 1 195 15 is_stmt 0 view .LVU101
	ldr	r0, [r3]
.LVL14:
	.loc 1 196 1 view .LVU102
	bx	lr
.LVL15:
.L14:
	.loc 1 185 3 is_stmt 1 view .LVU103
	.loc 1 185 19 is_stmt 0 view .LVU104
	str	r2, [r3, #4]
	b	.L13
	.cfi_endproc
.LFE4:
	.size	uxListRemove, .-uxListRemove
	.text
.Letext0:
	.file 2 "/home/a.malinowsk2/Programs/gcc-arm-none-eabi-8-2018-q4-major/arm-none-eabi/include/machine/_default_types.h"
	.file 3 "/home/a.malinowsk2/Programs/gcc-arm-none-eabi-8-2018-q4-major/arm-none-eabi/include/sys/lock.h"
	.file 4 "/home/a.malinowsk2/Programs/gcc-arm-none-eabi-8-2018-q4-major/arm-none-eabi/include/sys/_types.h"
	.file 5 "/home/a.malinowsk2/Programs/gcc-arm-none-eabi-8-2018-q4-major/lib/gcc/arm-none-eabi/8.2.1/include/stddef.h"
	.file 6 "/home/a.malinowsk2/Programs/gcc-arm-none-eabi-8-2018-q4-major/arm-none-eabi/include/sys/reent.h"
	.file 7 "/home/a.malinowsk2/Programs/gcc-arm-none-eabi-8-2018-q4-major/arm-none-eabi/include/sys/_stdint.h"
	.file 8 "../FreeRTOS/Source/portable/GCC/ARM_CM0/portmacro.h"
	.file 9 "../FreeRTOS/Source/include/list.h"