	.cpu cortex-m0
	.eabi_attribute 20, 1
	.eabi_attribute 21, 1
	.eabi_attribute 23, 3
	.eabi_attribute 24, 1
	.eabi_attribute 25, 1
	.eabi_attribute 26, 1
	.eabi_attribute 30, 2
	.eabi_attribute 34, 0
	.eabi_attribute 18, 4
	.file	"misc.c"
	.text
.Ltext0:
	.cfi_sections	.debug_frame
	.section	.text.strtok_lite,"ax",%progbits
	.align	1
	.p2align 2,,3
	.global	strtok_lite
	.arch armv6s-m
	.syntax unified
	.code	16
	.thumb_func
	.fpu softvfp
	.type	strtok_lite, %function
strtok_lite:
.LVL0:
.LFB0:
	.file 1 "misc.c"
	.loc 1 27 49 view -0
	.cfi_startproc
	@ args = 0, pretend = 0, frame = 0
	@ frame_needed = 0, uses_anonymous_args = 0
	.loc 1 28 5 view .LVU1
	.loc 1 30 5 view .LVU2
	.loc 1 27 49 is_stmt 0 view .LVU3
	push	{r4, r5, r6, r7, lr}
	.cfi_def_cfa_offset 20
	.cfi_offset 4, -20
	.cfi_offset 5, -16
	.cfi_offset 6, -12
	.cfi_offset 7, -8
	.cfi_offset 14, -4
	.loc 1 31 17 view .LVU4
	ldr	r6, .L21
	.loc 1 30 8 view .LVU5
	cmp	r0, #0
	beq	.L17
	.loc 1 31 9 is_stmt 1 view .LVU6
	.loc 1 34 8 is_stmt 0 view .LVU7
	ldrb	r3, [r0]
	.loc 1 31 17 view .LVU8
	str	r0, [r6]
	.loc 1 34 5 is_stmt 1 view .LVU9
	.loc 1 34 8 is_stmt 0 view .LVU10
	cmp	r3, #0
	beq	.L11
.LVL1:
.L20:
	.loc 1 34 8 view .LVU11
	movs	r4, r0
	.loc 1 48 20 view .LVU12
	movs	r7, #0
.L10:
.LVL2:
	.loc 1 46 25 view .LVU13
	ldrb	r3, [r1]
	adds	r2, r4, #1
	mov	ip, r2
	.loc 1 46 9 view .LVU14
	movs	r2, r1
	cmp	r3, #0
	beq	.L6
.LVL3:
.L5:
	.loc 1 47 13 is_stmt 1 view .LVU15
	.loc 1 47 16 is_stmt 0 view .LVU16
	ldrb	r5, [r4]
	cmp	r5, r3
	beq	.L18
.L7:
	.loc 1 46 38 discriminator 2 view .LVU17
	adds	r2, r2, #1
.LVL4:
	.loc 1 46 25 discriminator 2 view .LVU18
	ldrb	r3, [r2]
	.loc 1 46 9 discriminator 2 view .LVU19
	cmp	r3, #0
	bne	.L5
.L6:
.LVL5:
	.loc 1 42 9 is_stmt 1 view .LVU20
	mov	r4, ip
.LVL6:
	.loc 1 42 12 is_stmt 0 view .LVU21
	ldrb	r3, [r4]
	cmp	r3, #0
	bne	.L10
.LVL7:
.L15:
	.loc 1 42 12 view .LVU22
	str	r3, [r6]
.LVL8:
.L1:
	.loc 1 61 1 view .LVU23
	@ sp needed
	pop	{r4, r5, r6, r7, pc}
.LVL9:
.L18:
	.loc 1 48 17 is_stmt 1 view .LVU24
	.loc 1 48 20 is_stmt 0 view .LVU25
	strb	r7, [r4]
	.loc 1 49 17 is_stmt 1 view .LVU26
	.loc 1 51 17 view .LVU27
	.loc 1 51 20 is_stmt 0 view .LVU28
	cmp	r0, r4
	beq	.L19
	mov	r3, ip
	b	.L15
.L19:
	.loc 1 52 21 is_stmt 1 view .LVU29
	.loc 1 52 24 is_stmt 0 view .LVU30
	adds	r0, r0, #1
.LVL10:
	.loc 1 53 21 is_stmt 1 view .LVU31
	b	.L7
.LVL11:
.L17:
	.loc 1 53 21 is_stmt 0 view .LVU32
	ldr	r0, [r6]
.LVL12:
	.loc 1 34 5 is_stmt 1 view .LVU33
	.loc 1 34 8 is_stmt 0 view .LVU34
	ldrb	r3, [r0]
	cmp	r3, #0
	bne	.L20
.L11:
	.loc 1 35 15 view .LVU35
	movs	r0, #0
	b	.L1
.L22:
	.align	2
.L21:
	.word	.LANCHOR0
	.cfi_endproc
.LFE0:
	.size	strtok_lite, .-strtok_lite
	.section	.text.str_split,"ax",%progbits
	.align	1
	.p2align 2,,3
	.global	str_split
	.syntax unified
	.code	16
	.thumb_func
	.fpu softvfp
	.type	str_split, %function
str_split:
.LVL13:
.LFB1:
	.loc 1 63 66 is_stmt 1 view -0
	.cfi_startproc
	@ args = 0, pretend = 0, frame = 0
	@ frame_needed = 0, uses_anonymous_args = 0
	.loc 1 64 5 view .LVU37
	.loc 1 65 5 view .LVU38
	.loc 1 63 66 is_stmt 0 view .LVU39
	push	{r3, r4, r5, r6, r7, lr}
	.cfi_def_cfa_offset 24
	.cfi_offset 3, -24
	.cfi_offset 4, -20
	.cfi_offset 5, -16
	.cfi_offset 6, -12
	.cfi_offset 7, -8
	.cfi_offset 14, -4
	.loc 1 63 66 view .LVU40
	movs	r6, r0
	movs	r5, r1
	movs	r0, r2
.LVL14:
	.loc 1 63 66 view .LVU41
	movs	r7, r3
	.loc 1 65 12 view .LVU42
	movs	r4, #0
	.loc 1 65 5 view .LVU43
	cmp	r1, #0
	bgt	.L25
	b	.L23
.LVL15:
.L31:
	.loc 1 65 32 discriminator 2 view .LVU44
	adds	r4, r4, #1
.LVL16:
	.loc 1 65 40 discriminator 2 view .LVU45
	movs	r0, #0
	.loc 1 65 5 discriminator 2 view .LVU46
	cmp	r5, r4
	beq	.L23
.LVL17:
.L25:
	.loc 1 66 9 is_stmt 1 view .LVU47
	.loc 1 66 24 is_stmt 0 view .LVU48
	movs	r1, r7
	bl	strtok_lite
.LVL18:
	.loc 1 66 22 view .LVU49
	lsls	r3, r4, #2
	str	r0, [r6, r3]
	.loc 1 66 12 view .LVU50
	cmp	r0, #0
	bne	.L31
.LVL19:
.L23:
	.loc 1 69 1 view .LVU51
	movs	r0, r4
	@ sp needed
.LVL20:
.LVL21:
.LVL22:
	.loc 1 69 1 view .LVU52
	pop	{r3, r4, r5, r6, r7, pc}
	.cfi_endproc
.LFE1:
	.size	str_split, .-str_split
	.section	.bss._buffer.4034,"aw",%nobits
	.align	2
	.set	.LANCHOR0,. + 0
	.type	_buffer.4034, %object
	.size	_buffer.4034, 4
_buffer.4034:
	.space	4
	.text
.Letext0: