	.cpu cortex-m0
	.eabi_attribute 20, 1
	.eabi_attribute 21, 1
	.eabi_attribute 23, 3
	.eabi_attribute 24, 1
	.eabi_attribute 25, 1
	.eabi_attribute 26, 1
	.eabi_attribute 30, 2
	.eabi_attribute 34, 0
	.eabi_attribute 18, 4
	.file	"port.c"
	.text
.Ltext0:
	.cfi_sections	.debug_frame
	.section	.text.prvTaskExitError,"ax",%progbits
	.align	1
	.p2align 2,,3
	.arch armv6s-m
	.syntax unified
	.code	16
	.thumb_func
	.fpu softvfp
	.type	prvTaskExitError, %function
prvTaskExitError:
.LFB1:
	.file 1 "../FreeRTOS/Source/portable/GCC/ARM_CM0/port.c"
	.loc 1 114 1 view -0
	.cfi_startproc
	@ args = 0, pretend = 0, frame = 8
	@ frame_needed = 0, uses_anonymous_args = 0
	@ link register save eliminated.
	.loc 1 115 1 view .LVU1
	.loc 1 115 19 is_stmt 0 view .LVU2
	movs	r3, #0
	.loc 1 114 1 view .LVU3
	sub	sp, sp, #8
	.cfi_def_cfa_offset 8
	.loc 1 115 19 view .LVU4
	str	r3, [sp, #4]
	.loc 1 123 2 is_stmt 1 view .LVU5
	.loc 1 123 36 is_stmt 0 view .LVU6
	ldr	r3, .L8
	.loc 1 123 4 view .LVU7
	ldr	r3, [r3]
	adds	r3, r3, #1
	beq	.L2
	.loc 1 123 45 is_stmt 1 discriminator 1 view .LVU8
	.syntax divided
@ 123 "../FreeRTOS/Source/portable/GCC/ARM_CM0/port.c" 1
	 cpsid i 
@ 0 "" 2
	.thumb
	.syntax unified
.L3:
	.loc 1 123 90 discriminator 1 view .LVU9
	.loc 1 123 99 discriminator 1 view .LVU10
	.loc 1 123 90 discriminator 1 view .LVU11
	.loc 1 123 99 discriminator 1 view .LVU12
	b	.L3
.L2:
	.loc 1 123 102 discriminator 2 view .LVU13
	.loc 1 124 2 discriminator 2 view .LVU14
	.syntax divided
@ 124 "../FreeRTOS/Source/portable/GCC/ARM_CM0/port.c" 1
	 cpsid i 
@ 0 "" 2
	.loc 1 125 2 discriminator 2 view .LVU15
	.thumb
	.syntax unified
.L4:
	.loc 1 134 2 discriminator 1 view .LVU16
	.loc 1 125 17 is_stmt 0 discriminator 1 view .LVU17
	ldr	r3, [sp, #4]
	.loc 1 125 7 discriminator 1 view .LVU18
	cmp	r3, #0
	beq	.L4
	.loc 1 135 1 view .LVU19
	add	sp, sp, #8
	@ sp needed
	bx	lr
.L9:
	.align	2
.L8:
	.word	.LANCHOR0
	.cfi_endproc
.LFE1:
	.size	prvTaskExitError, .-prvTaskExitError
	.section	.text.vPortStartFirstTask,"ax",%progbits
	.align	1
	.p2align 2,,3
	.syntax unified
	.code	16
	.thumb_func
	.fpu softvfp
	.type	vPortStartFirstTask, %function
vPortStartFirstTask:
.LFB3:
	.loc 1 146 1 is_stmt 1 view -0
	.cfi_startproc
	@ Naked Function: prologue and epilogue provided by programmer.
	@ args = 0, pretend = 0, frame = 0
	@ frame_needed = 0, uses_anonymous_args = 0
	.loc 1 150 2 view .LVU21
	.syntax divided
@ 150 "../FreeRTOS/Source/portable/GCC/ARM_CM0/port.c" 1
		.syntax unified				
	ldr  r2, pxCurrentTCBConst2	
	ldr  r3, [r2]				
	ldr  r0, [r3]				
	adds r0, #32					
	msr  psp, r0					
	movs r0, #2					
	msr  CONTROL, r0				
	isb							
	pop  {r0-r5}					
	mov  lr, r5					
	pop  {r3}					
	pop  {r2}					
	cpsie i						
	bx   r3						
								
	.align 4					
pxCurrentTCBConst2: .word pxCurrentTCB	  
@ 0 "" 2
	.loc 1 170 1 is_stmt 0 view .LVU22
	.thumb
	.syntax unified
	.cfi_endproc
.LFE3:
	.size	vPortStartFirstTask, .-vPortStartFirstTask
	.section	.text.pxPortInitialiseStack,"ax",%progbits
	.align	1
	.p2align 2,,3
	.global	pxPortInitialiseStack
	.syntax unified
	.code	16
	.thumb_func
	.fpu softvfp
	.type	pxPortInitialiseStack, %function
pxPortInitialiseStack:
.LVL0:
.LFB0:
	.loc 1 96 1 is_stmt 1 view -0
	.cfi_startproc
	@ args = 0, pretend = 0, frame = 0
	@ frame_needed = 0, uses_anonymous_args = 0
	.loc 1 99 2 view .LVU24
	.loc 1 100 2 view .LVU25
	.loc 1 96 1 is_stmt 0 view .LVU26
	push	{r4, lr}
	.cfi_def_cfa_offset 8
	.cfi_offset 4, -8
	.cfi_offset 14, -4
	.loc 1 100 16 view .LVU27
	movs	r4, #128
	subs	r3, r0, #4
.LVL1:
	.loc 1 100 16 view .LVU28
	lsls	r4, r4, #17
	str	r4, [r3]
	.loc 1 101 2 is_stmt 1 view .LVU29
.LVL2:
	.loc 1 102 2 view .LVU30
	.loc 1 102 16 is_stmt 0 view .LVU31
	subs	r3, r3, #4
	str	r1, [r3]
	.loc 1 103 2 is_stmt 1 view .LVU32
.LVL3:
	.loc 1 104 2 view .LVU33
	.loc 1 104 16 is_stmt 0 view .LVU34
	ldr	r1, .L12
.LVL4:
	.loc 1 104 16 view .LVU35
	subs	r3, r3, #4
.LVL5:
	.loc 1 104 16 view .LVU36
	str	r1, [r3]
	.loc 1 105 2 is_stmt 1 view .LVU37
.LVL6:
	.loc 1 106 2 view .LVU38
	.loc 1 106 16 is_stmt 0 view .LVU39
	subs	r3, r3, #20
.LVL7:
	.loc 1 107 15 view .LVU40
	subs	r0, r0, #64
.LVL8:
	.loc 1 106 16 view .LVU41
	str	r2, [r3]
	.loc 1 107 2 is_stmt 1 view .LVU42
.LVL9:
	.loc 1 109 2 view .LVU43
	.loc 1 110 1 is_stmt 0 view .LVU44
	@ sp needed
	pop	{r4, pc}
.L13:
	.align	2
.L12:
	.word	prvTaskExitError
	.cfi_endproc
.LFE0:
	.size	pxPortInitialiseStack, .-pxPortInitialiseStack
	.section	.text.SVC_Handler,"ax",%progbits
	.align	1
	.p2align 2,,3
	.global	SVC_Handler
	.syntax unified
	.code	16
	.thumb_func
	.fpu softvfp
	.type	SVC_Handler, %function
SVC_Handler:
.LFB2:
	.loc 1 139 1 is_stmt 1 view -0
	.cfi_startproc
	@ args = 0, pretend = 0, frame = 0
	@ frame_needed = 0, uses_anonymous_args = 0
	@ link register save eliminated.
	.loc 1 142 1 view .LVU46
	@ sp needed
	bx	lr
	.cfi_endproc
.LFE2:
	.size	SVC_Handler, .-SVC_Handler
	.section	.text.xPortStartScheduler,"ax",%progbits
	.align	1
	.p2align 2,,3
	.global	xPortStartScheduler
	.syntax unified
	.code	16
	.thumb_func
	.fpu softvfp
	.type	xPortStartScheduler, %function
xPortStartScheduler:
.LFB4:
	.loc 1 177 1 view -0
	.cfi_startproc
	@ Volatile: function does not return.
	@ args = 0, pretend = 0, frame = 8
	@ frame_needed = 0, uses_anonymous_args = 0
	.loc 1 179 2 view .LVU48
	.loc 1 179 43 is_stmt 0 view .LVU49
	movs	r2, #255
	ldr	r3, .L17
	lsls	r2, r2, #16
	ldr	r1, [r3]
	.loc 1 177 1 view .LVU50
	push	{r4, lr}
	.cfi_def_cfa_offset 8
	.cfi_offset 4, -8
	.cfi_offset 14, -4
	.loc 1 179 43 view .LVU51
	orrs	r2, r1
	str	r2, [r3]
	.loc 1 180 2 is_stmt 1 view .LVU52
	.loc 1 180 43 is_stmt 0 view .LVU53
	movs	r2, #255
.LBB6:
.LBB7:
	.loc 1 354 44 view .LVU54
	movs	r4, #0
.LBE7:
.LBE6:
	.loc 1 180 43 view .LVU55
	ldr	r1, [r3]
	lsls	r2, r2, #24
	orrs	r2, r1
	str	r2, [r3]
	.loc 1 184 2 is_stmt 1 view .LVU56
.LBB10:
.LBI6:
	.loc 1 351 6 view .LVU57
.LBB8:
	.loc 1 354 2 view .LVU58
	.loc 1 354 44 is_stmt 0 view .LVU59
	ldr	r3, .L17+4
	.loc 1 355 44 view .LVU60
	ldr	r2, .L17+8
	.loc 1 354 44 view .LVU61
	str	r4, [r3]
	.loc 1 355 2 is_stmt 1 view .LVU62
	.loc 1 358 44 is_stmt 0 view .LVU63
	ldr	r1, .L17+12
	.loc 1 355 44 view .LVU64
	str	r4, [r2]
	.loc 1 358 2 is_stmt 1 view .LVU65
	.loc 1 358 44 is_stmt 0 view .LVU66
	ldr	r2, .L17+16
.LBE8:
.LBE10:
	.loc 1 177 1 view .LVU67
	sub	sp, sp, #8
	.cfi_def_cfa_offset 16
.LBB11:
.LBB9:
	.loc 1 358 44 view .LVU68
	str	r1, [r2]
	.loc 1 359 2 is_stmt 1 view .LVU69
	.loc 1 359 44 is_stmt 0 view .LVU70
	movs	r2, #7
	str	r2, [r3]
.LBE9:
.LBE11:
	.loc 1 187 2 is_stmt 1 view .LVU71
	.loc 1 187 20 is_stmt 0 view .LVU72
	ldr	r3, .L17+20
	str	r4, [r3]
	.loc 1 190 2 is_stmt 1 view .LVU73
	bl	vPortStartFirstTask
.LVL10:
	.loc 1 199 2 view .LVU74
.LBB12:
.LBI12:
	.loc 1 113 13 view .LVU75
.LBB13:
	.loc 1 115 1 view .LVU76
	.loc 1 115 19 is_stmt 0 view .LVU77
	str	r4, [sp, #4]
	.loc 1 123 2 is_stmt 1 view .LVU78
	.loc 1 123 45 view .LVU79
	.syntax divided
@ 123 "../FreeRTOS/Source/portable/GCC/ARM_CM0/port.c" 1
	 cpsid i 
@ 0 "" 2
	.thumb
	.syntax unified
.L16:
	.loc 1 123 90 view .LVU80
	.loc 1 123 99 view .LVU81
	.loc 1 123 90 view .LVU82
	.loc 1 123 99 view .LVU83
	b	.L16
.L18:
	.align	2
.L17:
	.word	-536810208
	.word	-536813552
	.word	-536813544
	.word	47999
	.word	-536813548
	.word	.LANCHOR0
.LBE13:
.LBE12:
	.cfi_endproc
.LFE4:
	.size	xPortStartScheduler, .-xPortStartScheduler
	.section	.text.vPortEndScheduler,"ax",%progbits
	.align	1
	.p2align 2,,3
	.global	vPortEndScheduler
	.syntax unified
	.code	16
	.thumb_func
	.fpu softvfp
	.type	vPortEndScheduler, %function
vPortEndScheduler:
.LFB5:
	.loc 1 207 1 view -0
	.cfi_startproc
	@ args = 0, pretend = 0, frame = 0
	@ frame_needed = 0, uses_anonymous_args = 0
	@ link register save eliminated.
	.loc 1 210 2 view .LVU85
	.loc 1 210 4 is_stmt 0 view .LVU86
	movs	r3, #250
	ldr	r2, .L22
	lsls	r3, r3, #2
	ldr	r2, [r2]
	cmp	r2, r3
	beq	.L19
	.loc 1 210 47 is_stmt 1 discriminator 1 view .LVU87
	.syntax divided
@ 210 "../FreeRTOS/Source/portable/GCC/ARM_CM0/port.c" 1
	 cpsid i 
@ 0 "" 2
	.thumb
	.syntax unified
.L21:
	.loc 1 210 92 discriminator 1 view .LVU88
	.loc 1 210 101 discriminator 1 view .LVU89
	.loc 1 210 92 discriminator 1 view .LVU90
	.loc 1 210 101 discriminator 1 view .LVU91
	b	.L21
.L19:
	.loc 1 211 1 is_stmt 0 view .LVU92
	@ sp needed
	bx	lr
.L23:
	.align	2
.L22:
	.word	.LANCHOR0
	.cfi_endproc
.LFE5:
	.size	vPortEndScheduler, .-vPortEndScheduler
	.section	.text.vPortYield,"ax",%progbits
	.align	1
	.p2align 2,,3
	.global	vPortYield
	.syntax unified
	.code	16
	.thumb_func
	.fpu softvfp
	.type	vPortYield, %function
vPortYield:
.LFB6:
	.loc 1 215 1 is_stmt 1 view -0
	.cfi_startproc
	@ args = 0, pretend = 0, frame = 0
	@ frame_needed = 0, uses_anonymous_args = 0
	@ link register save eliminated.
	.loc 1 217 2 view .LVU94
	.loc 1 217 45 is_stmt 0 view .LVU95
	movs	r2, #128
	ldr	r3, .L25
	lsls	r2, r2, #21
	str	r2, [r3]
	.loc 1 221 2 is_stmt 1 view .LVU96
	.syntax divided
@ 221 "../FreeRTOS/Source/portable/GCC/ARM_CM0/port.c" 1
	dsb
@ 0 "" 2
	.loc 1 222 2 view .LVU97
@ 222 "../FreeRTOS/Source/portable/GCC/ARM_CM0/port.c" 1
	isb
@ 0 "" 2
	.loc 1 223 1 is_stmt 0 view .LVU98
	.thumb
	.syntax unified
	@ sp needed
	bx	lr
.L26:
	.align	2
.L25:
	.word	-536810236
	.cfi_endproc
.LFE6:
	.size	vPortYield, .-vPortYield
	.section	.text.vPortEnterCritical,"ax",%progbits
	.align	1
	.p2align 2,,3
	.global	vPortEnterCritical
	.syntax unified
	.code	16
	.thumb_func
	.fpu softvfp
	.type	vPortEnterCritical, %function
vPortEnterCritical:
.LFB7:
	.loc 1 227 1 is_stmt 1 view -0
	.cfi_startproc
	@ args = 0, pretend = 0, frame = 0
	@ frame_needed = 0, uses_anonymous_args = 0
	@ link register save eliminated.
	.loc 1 228 5 view .LVU100
	.syntax divided
@ 228 "../FreeRTOS/Source/portable/GCC/ARM_CM0/port.c" 1
	 cpsid i 
@ 0 "" 2
	.loc 1 229 5 view .LVU101
	.loc 1 229 22 is_stmt 0 view .LVU102
	.thumb
	.syntax unified
	ldr	r2, .L28
	ldr	r3, [r2]
	adds	r3, r3, #1
	str	r3, [r2]
	.loc 1 230 2 is_stmt 1 view .LVU103
	.syntax divided
@ 230 "../FreeRTOS/Source/portable/GCC/ARM_CM0/port.c" 1
	dsb
@ 0 "" 2
	.loc 1 231 2 view .LVU104
@ 231 "../FreeRTOS/Source/portable/GCC/ARM_CM0/port.c" 1
	isb
@ 0 "" 2
	.loc 1 232 1 is_stmt 0 view .LVU105
	.thumb
	.syntax unified
	@ sp needed
	bx	lr
.L29:
	.align	2
.L28:
	.word	.LANCHOR0
	.cfi_endproc
.LFE7:
	.size	vPortEnterCritical, .-vPortEnterCritical
	.section	.text.vPortExitCritical,"ax",%progbits
	.align	1
	.p2align 2,,3
	.global	vPortExitCritical
	.syntax unified
	.code	16
	.thumb_func
	.fpu softvfp
	.type	vPortExitCritical, %function
vPortExitCritical:
.LFB8:
	.loc 1 236 1 is_stmt 1 view -0
	.cfi_startproc
	@ args = 0, pretend = 0, frame = 0
	@ frame_needed = 0, uses_anonymous_args = 0
	@ link register save eliminated.
	.loc 1 237 2 view .LVU107
	.loc 1 237 28 is_stmt 0 view .LVU108
	ldr	r2, .L34
	ldr	r3, [r2]
	.loc 1 237 4 view .LVU109
	cmp	r3, #0
	bne	.L31
	.loc 1 237 37 is_stmt 1 discriminator 1 view .LVU110
	.syntax divided
@ 237 "../FreeRTOS/Source/portable/GCC/ARM_CM0/port.c" 1
	 cpsid i 
@ 0 "" 2
	.thumb
	.syntax unified
.L32:
	.loc 1 237 82 discriminator 1 view .LVU111
	.loc 1 237 91 discriminator 1 view .LVU112
	.loc 1 237 82 discriminator 1 view .LVU113
	.loc 1 237 91 discriminator 1 view .LVU114
	b	.L32
.L31:
	.loc 1 237 94 discriminator 2 view .LVU115
	.loc 1 238 5 discriminator 2 view .LVU116
	.loc 1 238 22 is_stmt 0 discriminator 2 view .LVU117
	subs	r3, r3, #1
	str	r3, [r2]
	.loc 1 239 5 is_stmt 1 discriminator 2 view .LVU118
	.loc 1 239 7 is_stmt 0 discriminator 2 view .LVU119
	cmp	r3, #0
	bne	.L30
	.loc 1 241 9 is_stmt 1 view .LVU120
	.syntax divided
@ 241 "../FreeRTOS/Source/portable/GCC/ARM_CM0/port.c" 1
	 cpsie i 
@ 0 "" 2
	.thumb
	.syntax unified
.L30:
	.loc 1 243 1 is_stmt 0 view .LVU121
	@ sp needed
	bx	lr
.L35:
	.align	2
.L34:
	.word	.LANCHOR0
	.cfi_endproc
.LFE8:
	.size	vPortExitCritical, .-vPortExitCritical
	.section	.text.ulSetInterruptMaskFromISR,"ax",%progbits
	.align	1
	.p2align 2,,3
	.global	ulSetInterruptMaskFromISR
	.syntax unified
	.code	16
	.thumb_func
	.fpu softvfp
	.type	ulSetInterruptMaskFromISR, %function
ulSetInterruptMaskFromISR:
.LFB9:
	.loc 1 247 1 is_stmt 1 view -0
	.cfi_startproc
	@ Naked Function: prologue and epilogue provided by programmer.
	@ args = 0, pretend = 0, frame = 0
	@ frame_needed = 0, uses_anonymous_args = 0
	.loc 1 248 2 view .LVU123
	.syntax divided
@ 248 "../FreeRTOS/Source/portable/GCC/ARM_CM0/port.c" 1
	 mrs r0, PRIMASK	
 cpsid i			
 bx lr				  
@ 0 "" 2
	.loc 1 261 1 is_stmt 0 view .LVU124
	.thumb
	.syntax unified
	.cfi_endproc
.LFE9:
	.size	ulSetInterruptMaskFromISR, .-ulSetInterruptMaskFromISR
	.section	.text.vClearInterruptMaskFromISR,"ax",%progbits
	.align	1
	.p2align 2,,3
	.global	vClearInterruptMaskFromISR
	.syntax unified
	.code	16
	.thumb_func
	.fpu softvfp
	.type	vClearInterruptMaskFromISR, %function
vClearInterruptMaskFromISR:
.LVL11:
.LFB10:
	.loc 1 265 1 is_stmt 1 view -0
	.cfi_startproc
	@ Naked Function: prologue and epilogue provided by programmer.
	@ args = 0, pretend = 0, frame = 0
	@ frame_needed = 0, uses_anonymous_args = 0
	.loc 1 266 2 view .LVU126
	.syntax divided
@ 266 "../FreeRTOS/Source/portable/GCC/ARM_CM0/port.c" 1
	 msr PRIMASK, r0	
 bx lr				  
@ 0 "" 2
	.loc 1 278 1 is_stmt 0 view .LVU127
	.thumb
	.syntax unified
	.cfi_endproc
.LFE10:
	.size	vClearInterruptMaskFromISR, .-vClearInterruptMaskFromISR
	.section	.text.PendSV_Handler,"ax",%progbits
	.align	1
	.p2align 2,,3
	.global	PendSV_Handler
	.syntax unified
	.code	16
	.thumb_func
	.fpu softvfp
	.type	PendSV_Handler, %function
PendSV_Handler:
.LFB11:
	.loc 1 282 1 is_stmt 1 view -0
	.cfi_startproc
	@ Naked Function: prologue and epilogue provided by programmer.
	@ args = 0, pretend = 0, frame = 0
	@ frame_needed = 0, uses_anonymous_args = 0
	.loc 1 285 2 view .LVU129
	.syntax divided
@ 285 "../FreeRTOS/Source/portable/GCC/ARM_CM0/port.c" 1
		.syntax unified						
	mrs r0, psp							
										
	ldr	r3, pxCurrentTCBConst			
	ldr	r2, [r3]						
										
	subs r0, r0, #32					
	str r0, [r2]						
	stmia r0!, {r4-r7}					
 	mov r4, r8							
 	mov r5, r9							
 	mov r6, r10							
 	mov r7, r11							
 	stmia r0!, {r4-r7}					
										
	push {r3, r14}						
	cpsid i								
	bl vTaskSwitchContext				
	cpsie i								
	pop {r2, r3}						
										
	ldr r1, [r2]						
	ldr r0, [r1]						
	adds r0, r0, #16					
	ldmia r0!, {r4-r7}					
 	mov r8, r4							
 	mov r9, r5							
 	mov r10, r6							
 	mov r11, r7							
										
	msr psp, r0							
										
	subs r0, r0, #32					
 	ldmia r0!, {r4-r7}					
										
	bx r3								
										
	.align 4							
pxCurrentTCBConst: .word pxCurrentTCB	  
@ 0 "" 2
	.loc 1 327 1 is_stmt 0 view .LVU130
	.thumb
	.syntax unified
	.cfi_endproc
.LFE11:
	.size	PendSV_Handler, .-PendSV_Handler
	.section	.text.SysTick_Handler,"ax",%progbits
	.align	1
	.p2align 2,,3
	.global	SysTick_Handler
	.syntax unified
	.code	16
	.thumb_func
	.fpu softvfp
	.type	SysTick_Handler, %function
SysTick_Handler:
.LFB12:
	.loc 1 331 1 is_stmt 1 view -0
	.cfi_startproc
	@ args = 0, pretend = 0, frame = 0
	@ frame_needed = 0, uses_anonymous_args = 0
	.loc 1 332 1 view .LVU132
	.loc 1 334 2 view .LVU133
	.loc 1 331 1 is_stmt 0 view .LVU134
	push	{r4, lr}
	.cfi_def_cfa_offset 8
	.cfi_offset 4, -8
	.cfi_offset 14, -4
	.loc 1 334 19 view .LVU135
	bl	ulSetInterruptMaskFromISR
.LVL12:
	movs	r4, r0
.LVL13:
	.loc 1 337 3 is_stmt 1 view .LVU136
	.loc 1 337 7 is_stmt 0 view .LVU137
	bl	xTaskIncrementTick
.LVL14:
	.loc 1 337 5 view .LVU138
	cmp	r0, #0
	beq	.L40
	.loc 1 340 4 is_stmt 1 view .LVU139
	.loc 1 340 45 is_stmt 0 view .LVU140
	movs	r2, #128
	ldr	r3, .L44
	lsls	r2, r2, #21
	str	r2, [r3]
.L40:
	.loc 1 343 2 is_stmt 1 view .LVU141
	movs	r0, r4
	bl	vClearInterruptMaskFromISR
.LVL15:
	.loc 1 344 1 is_stmt 0 view .LVU142
	@ sp needed
.LVL16:
	.loc 1 344 1 view .LVU143
	pop	{r4, pc}
.L45:
	.align	2
.L44:
	.word	-536810236
	.cfi_endproc
.LFE12:
	.size	SysTick_Handler, .-SysTick_Handler
	.section	.data.uxCriticalNesting,"aw"
	.align	2
	.set	.LANCHOR0,. + 0
	.type	uxCriticalNesting, %object
	.size	uxCriticalNesting, 4
uxCriticalNesting:
	.word	-1431655766
	.text
.Letext0:
	.file 2 "/home/a.malinowsk2/Programs/gcc-arm-none-eabi-8-2018-q4-major/arm-none-eabi/include/machine/_default_types.h"
	.file 3 "/home/a.malinowsk2/Programs/gcc-arm-none-eabi-8-2018-q4-major/arm-none-eabi/include/sys/_stdint.h"
	.file 4 "../FreeRTOS/Source/include/projdefs.h"
	.file 5 "../FreeRTOS/Source/portable/GCC/ARM_CM0/portmacro.h"
	.file 6 "../FreeRTOS/Source/include/task.h"