	.cpu cortex-m0
	.eabi_attribute 20, 1
	.eabi_attribute 21, 1
	.eabi_attribute 23, 3
	.eabi_attribute 24, 1
	.eabi_attribute 25, 1
	.eabi_attribute 26, 1
	.eabi_attribute 30, 2
	.eabi_attribute 34, 0
	.eabi_attribute 18, 4
	.file	"queue.c"
	.text
.Ltext0:
	.cfi_sections	.debug_frame
	.section	.text.prvCopyDataToQueue,"ax",%progbits
	.align	1
	.p2align 2,,3
	.arch armv6s-m
	.syntax unified
	.code	16
	.thumb_func
	.fpu softvfp
	.type	prvCopyDataToQueue, %function
prvCopyDataToQueue:
.LVL0:
.LFB15:
	.file 1 "../FreeRTOS/Source/queue.c"
	.loc 1 2071 1 view -0
	.cfi_startproc
	@ args = 0, pretend = 0, frame = 0
	@ frame_needed = 0, uses_anonymous_args = 0
	.loc 1 2072 1 view .LVU1
	.loc 1 2073 1 view .LVU2
	.loc 1 2077 2 view .LVU3
	.loc 1 2071 1 is_stmt 0 view .LVU4
	push	{r4, r5, r6, lr}
	.cfi_def_cfa_offset 16
	.cfi_offset 4, -16
	.cfi_offset 5, -12
	.cfi_offset 6, -8
	.cfi_offset 14, -4
	.loc 1 2071 1 view .LVU5
	movs	r6, r2
	.loc 1 2079 13 view .LVU6
	ldr	r2, [r0, #64]
.LVL1:
	.loc 1 2071 1 view .LVU7
	movs	r4, r0
	.loc 1 2077 20 view .LVU8
	ldr	r5, [r0, #56]
.LVL2:
	.loc 1 2079 2 is_stmt 1 view .LVU9
	.loc 1 2079 4 is_stmt 0 view .LVU10
	cmp	r2, #0
	beq	.L7
	.loc 1 2096 7 is_stmt 1 view .LVU11
	.loc 1 2096 9 is_stmt 0 view .LVU12
	cmp	r6, #0
	bne	.L4
	.loc 1 2098 3 is_stmt 1 view .LVU13
	.loc 1 2098 12 is_stmt 0 view .LVU14
	ldr	r0, [r0, #4]
.LVL3:
	.loc 1 2098 12 view .LVU15
	bl	memcpy
.LVL4:
	.loc 1 2099 3 is_stmt 1 view .LVU16
	.loc 1 2099 22 is_stmt 0 view .LVU17
	ldr	r2, [r4, #64]
	ldr	r3, [r4, #4]
	mov	ip, r2
	.loc 1 2100 5 view .LVU18
	ldr	r2, [r4, #8]
	.loc 1 2099 22 view .LVU19
	add	r3, r3, ip
	str	r3, [r4, #4]
	.loc 1 2100 3 is_stmt 1 view .LVU20
	adds	r5, r5, #1
.LVL5:
	.loc 1 2100 5 is_stmt 0 view .LVU21
	cmp	r3, r2
	bcc	.L3
	.loc 1 2102 4 is_stmt 1 view .LVU22
	.loc 1 2102 23 is_stmt 0 view .LVU23
	ldr	r3, [r4]
	str	r3, [r4, #4]
	b	.L3
.LVL6:
.L4:
	.loc 1 2111 3 is_stmt 1 view .LVU24
	.loc 1 2111 12 is_stmt 0 view .LVU25
	ldr	r0, [r0, #12]
.LVL7:
	.loc 1 2111 12 view .LVU26
	bl	memcpy
.LVL8:
	.loc 1 2112 3 is_stmt 1 view .LVU27
	.loc 1 2112 32 is_stmt 0 view .LVU28
	ldr	r3, [r4, #64]
	.loc 1 2113 5 view .LVU29
	ldr	r1, [r4]
	.loc 1 2112 32 view .LVU30
	rsbs	r2, r3, #0
	ldr	r3, [r4, #12]
	adds	r3, r3, r2
	str	r3, [r4, #12]
	.loc 1 2113 3 is_stmt 1 view .LVU31
	.loc 1 2113 5 is_stmt 0 view .LVU32
	cmp	r3, r1
	bcs	.L5
	.loc 1 2115 4 is_stmt 1 view .LVU33
	.loc 1 2115 62 is_stmt 0 view .LVU34
	ldr	r3, [r4, #8]
	mov	ip, r3
	add	r2, r2, ip
	.loc 1 2115 33 view .LVU35
	str	r2, [r4, #12]
.L5:
	.loc 1 2119 4 is_stmt 1 view .LVU36
	.loc 1 2122 3 view .LVU37
	.loc 1 2122 5 is_stmt 0 view .LVU38
	cmp	r6, #2
	beq	.L6
.L7:
	.loc 1 2124 6 view .LVU39
	adds	r5, r5, #1
.LVL9:
.L3:
	.loc 1 2139 4 is_stmt 1 view .LVU40
	.loc 1 2143 2 view .LVU41
	.loc 1 2143 29 is_stmt 0 view .LVU42
	str	r5, [r4, #56]
	.loc 1 2145 2 is_stmt 1 view .LVU43
	.loc 1 2146 1 is_stmt 0 view .LVU44
	movs	r0, #0
	@ sp needed
.LVL10:
.LVL11:
	.loc 1 2146 1 view .LVU45
	pop	{r4, r5, r6, pc}
.LVL12:
.L6:
	.loc 1 2124 4 is_stmt 1 view .LVU46
	.loc 1 2124 6 is_stmt 0 view .LVU47
	cmp	r5, #0
	bne	.L3
	b	.L7
	.cfi_endproc
.LFE15:
	.size	prvCopyDataToQueue, .-prvCopyDataToQueue
	.section	.text.prvNotifyQueueSetContainer,"ax",%progbits
	.align	1
	.p2align 2,,3
	.syntax unified
	.code	16
	.thumb_func
	.fpu softvfp
	.type	prvNotifyQueueSetContainer, %function
prvNotifyQueueSetContainer:
.LVL13:
.LFB30:
	.loc 1 2879 2 is_stmt 1 view -0
	.cfi_startproc
	@ args = 0, pretend = 0, frame = 8
	@ frame_needed = 0, uses_anonymous_args = 0
	.loc 1 2880 2 view .LVU49
	.loc 1 2879 2 is_stmt 0 view .LVU50
	push	{r4, r5, r6, r7, lr}
	.cfi_def_cfa_offset 20
	.cfi_offset 4, -20
	.cfi_offset 5, -16
	.cfi_offset 6, -12
	.cfi_offset 7, -8
	.cfi_offset 14, -4
	.loc 1 2880 11 view .LVU51
	ldr	r4, [r0, #72]
.LVL14:
	.loc 1 2881 2 is_stmt 1 view .LVU52
	.loc 1 2885 3 view .LVU53
	.loc 1 2879 2 is_stmt 0 view .LVU54
	sub	sp, sp, #12
	.cfi_def_cfa_offset 32
	.loc 1 2879 2 view .LVU55
	str	r0, [sp, #4]
	movs	r2, r1
	.loc 1 2885 5 view .LVU56
	cmp	r4, #0
	beq	.L23
	.loc 1 2885 97 is_stmt 1 discriminator 2 view .LVU57
	.loc 1 2886 3 discriminator 2 view .LVU58
	.loc 1 2886 28 is_stmt 0 discriminator 2 view .LVU59
	ldr	r1, [r4, #56]
.LVL15:
	.loc 1 2886 69 discriminator 2 view .LVU60
	ldr	r3, [r4, #60]
	.loc 1 2886 5 discriminator 2 view .LVU61
	cmp	r1, r3
	bcs	.L24
	.loc 1 2886 148 is_stmt 1 discriminator 2 view .LVU62
	.loc 1 2888 3 discriminator 2 view .LVU63
	.loc 1 2888 26 is_stmt 0 discriminator 2 view .LVU64
	ldr	r1, [r4, #56]
	.loc 1 2881 13 discriminator 2 view .LVU65
	movs	r6, #0
	.loc 1 2888 5 discriminator 2 view .LVU66
	cmp	r3, r1
	bhi	.L25
.LVL16:
.L9:
	.loc 1 2927 2 view .LVU67
	movs	r0, r6
	add	sp, sp, #12
	@ sp needed
.LVL17:
	.loc 1 2927 2 view .LVU68
	pop	{r4, r5, r6, r7, pc}
.LVL18:
.L24:
	.loc 1 2886 91 is_stmt 1 discriminator 1 view .LVU69
	.syntax divided
@ 2886 "../FreeRTOS/Source/queue.c" 1
	 cpsid i 
@ 0 "" 2
	.thumb
	.syntax unified
.L13:
	.loc 1 2886 136 discriminator 2 view .LVU70
	.loc 1 2886 145 discriminator 2 view .LVU71
	.loc 1 2886 136 discriminator 2 view .LVU72
	.loc 1 2886 145 discriminator 2 view .LVU73
	b	.L13
.LVL19:
.L23:
	.loc 1 2885 40 discriminator 1 view .LVU74
	.syntax divided
@ 2885 "../FreeRTOS/Source/queue.c" 1
	 cpsid i 
@ 0 "" 2
	.thumb
	.syntax unified
.L11:
	.loc 1 2885 85 discriminator 1 view .LVU75
	.loc 1 2885 94 discriminator 1 view .LVU76
	.loc 1 2885 85 discriminator 1 view .LVU77
	.loc 1 2885 94 discriminator 1 view .LVU78
	b	.L11
.LVL20:
.L25:
.LBB40:
	.loc 1 2890 4 view .LVU79
	.loc 1 2890 17 is_stmt 0 view .LVU80
	movs	r7, #69
	.loc 1 2895 14 view .LVU81
	add	r1, sp, #4
	movs	r0, r4
.LVL21:
	.loc 1 2890 17 view .LVU82
	ldrb	r5, [r4, r7]
	.loc 1 2895 14 view .LVU83
	bl	prvCopyDataToQueue
.LVL22:
	.loc 1 2890 17 view .LVU84
	sxtb	r5, r5
.LVL23:
	.loc 1 2892 4 is_stmt 1 view .LVU85
	.loc 1 2895 4 view .LVU86
	.loc 1 2895 14 is_stmt 0 view .LVU87
	movs	r6, r0
.LVL24:
	.loc 1 2897 4 is_stmt 1 view .LVU88
	.loc 1 2897 6 is_stmt 0 view .LVU89
	adds	r3, r5, #1
	beq	.L26
	.loc 1 2918 5 is_stmt 1 view .LVU90
	.loc 1 2918 57 is_stmt 0 view .LVU91
	adds	r5, r5, #1
.LVL25:
	.loc 1 2918 36 view .LVU92
	sxtb	r5, r5
.LVL26:
	.loc 1 2918 34 view .LVU93
	strb	r5, [r4, r7]
	b	.L9
.LVL27:
.L26:
	.loc 1 2899 5 is_stmt 1 view .LVU94
	.loc 1 2899 65 is_stmt 0 view .LVU95
	ldr	r3, [r4, #36]
	.loc 1 2899 7 view .LVU96
	cmp	r3, #0
	beq	.L9
	.loc 1 2901 6 is_stmt 1 view .LVU97
	.loc 1 2901 36 is_stmt 0 view .LVU98
	movs	r0, r4
.LVL28:
	.loc 1 2901 36 view .LVU99
	adds	r0, r0, #36
	.loc 1 2901 10 view .LVU100
	bl	xTaskRemoveFromEventList
.LVL29:
	.loc 1 2901 8 view .LVU101
	cmp	r0, #0
	beq	.L9
	.loc 1 2904 15 view .LVU102
	movs	r6, #1
.LVL30:
	.loc 1 2904 15 view .LVU103
	b	.L9
.LBE40:
	.cfi_endproc
.LFE30:
	.size	prvNotifyQueueSetContainer, .-prvNotifyQueueSetContainer
	.section	.text.prvCopyDataFromQueue,"ax",%progbits
	.align	1
	.p2align 2,,3
	.syntax unified
	.code	16
	.thumb_func
	.fpu softvfp
	.type	prvCopyDataFromQueue, %function
prvCopyDataFromQueue:
.LVL31:
.LFB16:
	.loc 1 2150 1 is_stmt 1 view -0
	.cfi_startproc
	@ args = 0, pretend = 0, frame = 0
	@ frame_needed = 0, uses_anonymous_args = 0
	.loc 1 2151 2 view .LVU105
	.loc 1 2151 13 is_stmt 0 view .LVU106
	ldr	r2, [r0, #64]
	.loc 1 2150 1 view .LVU107
	push	{r4, lr}
	.cfi_def_cfa_offset 8
	.cfi_offset 4, -8
	.cfi_offset 14, -4
	.loc 1 2150 1 view .LVU108
	movs	r3, r1
	.loc 1 2151 4 view .LVU109
	cmp	r2, #0
	beq	.L27
	.loc 1 2153 3 is_stmt 1 view .LVU110
	.loc 1 2153 32 is_stmt 0 view .LVU111
	ldr	r1, [r0, #12]
.LVL32:
	.loc 1 2154 5 view .LVU112
	ldr	r4, [r0, #8]
	.loc 1 2153 32 view .LVU113
	adds	r1, r1, r2
	str	r1, [r0, #12]
	.loc 1 2154 3 is_stmt 1 view .LVU114
	.loc 1 2154 5 is_stmt 0 view .LVU115
	cmp	r1, r4
	bcc	.L29
	.loc 1 2156 4 is_stmt 1 view .LVU116
	.loc 1 2156 42 is_stmt 0 view .LVU117
	ldr	r1, [r0]
	.loc 1 2156 33 view .LVU118
	str	r1, [r0, #12]
.L29:
	.loc 1 2160 4 is_stmt 1 view .LVU119
	.loc 1 2162 3 view .LVU120
	.loc 1 2162 12 is_stmt 0 view .LVU121
	movs	r0, r3
.LVL33:
	.loc 1 2162 12 view .LVU122
	bl	memcpy
.LVL34:
.L27:
	.loc 1 2164 1 view .LVU123
	@ sp needed
	pop	{r4, pc}
	.cfi_endproc
.LFE16:
	.size	prvCopyDataFromQueue, .-prvCopyDataFromQueue
	.section	.text.prvUnlockQueue,"ax",%progbits
	.align	1
	.p2align 2,,3
	.syntax unified
	.code	16
	.thumb_func
	.fpu softvfp
	.type	prvUnlockQueue, %function
prvUnlockQueue:
.LVL35:
.LFB17:
	.loc 1 2168 1 is_stmt 1 view -0
	.cfi_startproc
	@ args = 0, pretend = 0, frame = 0
	@ frame_needed = 0, uses_anonymous_args = 0
	.loc 1 2175 2 view .LVU125
	.loc 1 2168 1 is_stmt 0 view .LVU126
	push	{r4, r5, r6, lr}
	.cfi_def_cfa_offset 16
	.cfi_offset 4, -16
	.cfi_offset 5, -12
	.cfi_offset 6, -8
	.cfi_offset 14, -4
	.loc 1 2168 1 view .LVU127
	movs	r5, r0
	.loc 1 2175 2 view .LVU128
	bl	vPortEnterCritical
.LVL36:
.LBB41:
	.loc 1 2177 3 is_stmt 1 view .LVU129
	.loc 1 2177 10 is_stmt 0 view .LVU130
	movs	r3, #69
	.loc 1 2207 37 view .LVU131
	movs	r6, r5
	.loc 1 2177 10 view .LVU132
	ldrb	r4, [r5, r3]
	.loc 1 2207 37 view .LVU133
	adds	r6, r6, #36
	.loc 1 2177 10 view .LVU134
	sxtb	r4, r4
.LVL37:
	.loc 1 2180 3 is_stmt 1 view .LVU135
	.loc 1 2180 8 is_stmt 0 view .LVU136
	cmp	r4, #0
	bgt	.L34
	b	.L40
.L60:
	.loc 1 2188 6 is_stmt 1 view .LVU137
	.loc 1 2188 10 is_stmt 0 view .LVU138
	movs	r1, #0
	movs	r0, r5
	bl	prvNotifyQueueSetContainer
.LVL38:
	.loc 1 2188 8 view .LVU139
	cmp	r0, #0
	bne	.L38
.L39:
	.loc 1 2215 8 is_stmt 1 view .LVU140
	.loc 1 2248 4 view .LVU141
	subs	r4, r4, #1
.LVL39:
	.loc 1 2248 4 is_stmt 0 view .LVU142
	uxtb	r3, r4
.LVL40:
	.loc 1 2248 4 view .LVU143
	sxtb	r4, r3
	.loc 1 2180 8 view .LVU144
	cmp	r3, #0
	beq	.L40
.LVL41:
.L34:
	.loc 1 2186 5 is_stmt 1 view .LVU145
	.loc 1 2186 7 is_stmt 0 view .LVU146
	ldr	r3, [r5, #72]
	cmp	r3, #0
	bne	.L60
	.loc 1 2205 6 is_stmt 1 view .LVU147
	.loc 1 2205 54 is_stmt 0 view .LVU148
	ldr	r3, [r5, #36]
	.loc 1 2205 8 view .LVU149
	cmp	r3, #0
	beq	.L40
	.loc 1 2207 7 is_stmt 1 view .LVU150
	.loc 1 2207 11 is_stmt 0 view .LVU151
	movs	r0, r6
	bl	xTaskRemoveFromEventList
.LVL42:
	.loc 1 2207 9 view .LVU152
	cmp	r0, #0
	beq	.L39
.L38:
	.loc 1 2193 7 is_stmt 1 view .LVU153
	subs	r4, r4, #1
.LVL43:
	.loc 1 2193 7 is_stmt 0 view .LVU154
	bl	vTaskMissedYield
.LVL44:
	.loc 1 2215 8 is_stmt 1 view .LVU155
	.loc 1 2248 4 view .LVU156
	uxtb	r3, r4
.LVL45:
	.loc 1 2248 4 is_stmt 0 view .LVU157
	sxtb	r4, r3
	.loc 1 2180 8 view .LVU158
	cmp	r3, #0
	bne	.L34
.LVL46:
.L40:
	.loc 1 2251 3 is_stmt 1 view .LVU159
	.loc 1 2251 20 is_stmt 0 view .LVU160
	movs	r3, #69
	movs	r2, #255
	strb	r2, [r5, r3]
.LBE41:
	.loc 1 2253 2 is_stmt 1 view .LVU161
	bl	vPortExitCritical
.LVL47:
	.loc 1 2256 2 view .LVU162
	bl	vPortEnterCritical
.LVL48:
.LBB42:
	.loc 1 2258 3 view .LVU163
	.loc 1 2258 10 is_stmt 0 view .LVU164
	movs	r3, #68
	ldrb	r4, [r5, r3]
	sxtb	r4, r4
.LVL49:
	.loc 1 2260 3 is_stmt 1 view .LVU165
	.loc 1 2260 8 is_stmt 0 view .LVU166
	cmp	r4, #0
	ble	.L36
	.loc 1 2262 4 is_stmt 1 view .LVU167
	.loc 1 2262 49 is_stmt 0 view .LVU168
	ldr	r3, [r5, #16]
	.loc 1 2262 6 view .LVU169
	cmp	r3, #0
	beq	.L36
	movs	r6, r5
	adds	r6, r6, #16
	b	.L42
.L43:
	.loc 1 2270 6 is_stmt 1 view .LVU170
	.loc 1 2273 5 view .LVU171
	subs	r4, r4, #1
.LVL50:
	.loc 1 2273 5 is_stmt 0 view .LVU172
	uxtb	r3, r4
	sxtb	r4, r3
.LVL51:
	.loc 1 2260 8 view .LVU173
	cmp	r3, #0
	beq	.L36
.L44:
	.loc 1 2262 4 is_stmt 1 view .LVU174
	.loc 1 2262 49 is_stmt 0 view .LVU175
	ldr	r3, [r5, #16]
	.loc 1 2262 6 view .LVU176
	cmp	r3, #0
	beq	.L36
.L42:
	.loc 1 2264 5 is_stmt 1 view .LVU177
	.loc 1 2264 9 is_stmt 0 view .LVU178
	movs	r0, r6
	bl	xTaskRemoveFromEventList
.LVL52:
	.loc 1 2264 7 view .LVU179
	cmp	r0, #0
	beq	.L43
	.loc 1 2266 6 is_stmt 1 view .LVU180
	subs	r4, r4, #1
.LVL53:
	.loc 1 2266 6 is_stmt 0 view .LVU181
	bl	vTaskMissedYield
.LVL54:
	.loc 1 2270 6 is_stmt 1 view .LVU182
	.loc 1 2273 5 view .LVU183
	uxtb	r3, r4
	sxtb	r4, r3
.LVL55:
	.loc 1 2260 8 is_stmt 0 view .LVU184
	cmp	r3, #0
	bne	.L44
.L36:
	.loc 1 2281 3 is_stmt 1 view .LVU185
	.loc 1 2281 20 is_stmt 0 view .LVU186
	movs	r3, #68
	movs	r2, #255
	strb	r2, [r5, r3]
.LBE42:
	.loc 1 2283 2 is_stmt 1 view .LVU187
	bl	vPortExitCritical
.LVL56:
	.loc 1 2284 1 is_stmt 0 view .LVU188
	@ sp needed
.LVL57:
.LVL58:
	.loc 1 2284 1 view .LVU189
	pop	{r4, r5, r6, pc}
	.cfi_endproc
.LFE17:
	.size	prvUnlockQueue, .-prvUnlockQueue
	.section	.text.xQueueGenericReset.part.0,"ax",%progbits
	.align	1
	.p2align 2,,3
	.syntax unified
	.code	16
	.thumb_func
	.fpu softvfp
	.type	xQueueGenericReset.part.0, %function
xQueueGenericReset.part.0:
.LVL59:
.LFB31:
	.loc 1 255 12 is_stmt 1 view -0
	.cfi_startproc
	@ args = 0, pretend = 0, frame = 0
	@ frame_needed = 0, uses_anonymous_args = 0
	.loc 1 259 84 view .LVU191
	.loc 1 261 2 view .LVU192
	.loc 1 255 12 is_stmt 0 view .LVU193
	push	{r4, r5, r6, lr}
	.cfi_def_cfa_offset 16
	.cfi_offset 4, -16
	.cfi_offset 5, -12
	.cfi_offset 6, -8
	.cfi_offset 14, -4
	.loc 1 255 12 view .LVU194
	movs	r4, r0
	movs	r5, r1
	.loc 1 261 2 view .LVU195
	bl	vPortEnterCritical
.LVL60:
	.loc 1 263 3 is_stmt 1 view .LVU196
	.loc 1 263 77 is_stmt 0 view .LVU197
	ldr	r1, [r4, #64]
	.loc 1 263 68 view .LVU198
	ldr	r3, [r4, #60]
	.loc 1 263 37 view .LVU199
	ldr	r2, [r4]
	.loc 1 263 68 view .LVU200
	muls	r3, r1
	.loc 1 263 46 view .LVU201
	adds	r0, r2, r3
	.loc 1 266 50 view .LVU202
	subs	r3, r3, r1
	adds	r3, r2, r3
	.loc 1 263 28 view .LVU203
	str	r0, [r4, #8]
	.loc 1 264 3 is_stmt 1 view .LVU204
	.loc 1 265 22 is_stmt 0 view .LVU205
	str	r2, [r4, #4]
	.loc 1 266 32 view .LVU206
	str	r3, [r4, #12]
	.loc 1 267 20 view .LVU207
	movs	r2, #68
	movs	r3, #255
	.loc 1 264 30 view .LVU208
	movs	r0, #0
	str	r0, [r4, #56]
	.loc 1 265 3 is_stmt 1 view .LVU209
	.loc 1 266 3 view .LVU210
	.loc 1 267 3 view .LVU211
	.loc 1 267 20 is_stmt 0 view .LVU212
	strb	r3, [r4, r2]
	.loc 1 268 3 is_stmt 1 view .LVU213
	.loc 1 268 20 is_stmt 0 view .LVU214
	adds	r2, r2, #1
	strb	r3, [r4, r2]
	.loc 1 270 3 is_stmt 1 view .LVU215
	.loc 1 270 5 is_stmt 0 view .LVU216
	cmp	r5, #0
	bne	.L62
	.loc 1 277 4 is_stmt 1 view .LVU217
	.loc 1 277 49 is_stmt 0 view .LVU218
	ldr	r3, [r4, #16]
	.loc 1 277 6 view .LVU219
	cmp	r3, #0
	bne	.L69
.L64:
	.loc 1 300 2 is_stmt 1 view .LVU220
	bl	vPortExitCritical
.LVL61:
	.loc 1 304 2 view .LVU221
	.loc 1 305 1 is_stmt 0 view .LVU222
	@ sp needed
	movs	r0, #1
.LVL62:
.LVL63:
	.loc 1 305 1 view .LVU223
	pop	{r4, r5, r6, pc}
.LVL64:
.L69:
	.loc 1 279 5 is_stmt 1 view .LVU224
	.loc 1 279 35 is_stmt 0 view .LVU225
	movs	r0, r4
	adds	r0, r0, #16
	.loc 1 279 9 view .LVU226
	bl	xTaskRemoveFromEventList
.LVL65:
	.loc 1 279 7 view .LVU227
	cmp	r0, #0
	beq	.L64
	.loc 1 281 6 is_stmt 1 view .LVU228
	bl	vPortYield
.LVL66:
	b	.L64
.L62:
	.loc 1 296 4 view .LVU229
	movs	r0, r4
	adds	r0, r0, #16
	bl	vListInitialise
.LVL67:
	.loc 1 297 4 view .LVU230
	movs	r0, r4
	adds	r0, r0, #36
	bl	vListInitialise
.LVL68:
	b	.L64
	.cfi_endproc
.LFE31:
	.size	xQueueGenericReset.part.0, .-xQueueGenericReset.part.0
	.section	.text.xQueueGenericCreate.part.2,"ax",%progbits
	.align	1
	.p2align 2,,3
	.syntax unified
	.code	16
	.thumb_func
	.fpu softvfp
	.type	xQueueGenericCreate.part.2, %function
xQueueGenericCreate.part.2:
.LVL69:
.LFB33:
	.loc 1 368 16 view -0
	.cfi_startproc
	@ args = 0, pretend = 0, frame = 0
	@ frame_needed = 0, uses_anonymous_args = 0
	.loc 1 374 111 view .LVU232
	.loc 1 376 3 view .LVU233
	.loc 1 368 16 is_stmt 0 view .LVU234
	push	{r4, r5, r6, lr}
	.cfi_def_cfa_offset 16
	.cfi_offset 4, -16
	.cfi_offset 5, -12
	.cfi_offset 6, -8
	.cfi_offset 14, -4
	.loc 1 368 16 view .LVU235
	movs	r6, r0
	subs	r5, r1, #0
	.loc 1 376 5 view .LVU236
	beq	.L71
	.loc 1 385 4 is_stmt 1 view .LVU237
.LVL70:
	.loc 1 397 3 view .LVU238
	.loc 1 385 22 is_stmt 0 view .LVU239
	muls	r0, r1
.LVL71:
	.loc 1 397 30 view .LVU240
	adds	r0, r0, #76
.LVL72:
	.loc 1 397 30 view .LVU241
	bl	pvPortMalloc
.LVL73:
	.loc 1 397 30 view .LVU242
	subs	r4, r0, #0
.LVL74:
	.loc 1 399 3 is_stmt 1 view .LVU243
	.loc 1 399 5 is_stmt 0 view .LVU244
	beq	.L76
	.loc 1 403 4 is_stmt 1 view .LVU245
.LVL75:
	.loc 1 404 4 view .LVU246
	.loc 1 415 4 view .LVU247
.LBB43:
.LBI43:
	.loc 1 429 13 view .LVU248
.LBB44:
	.loc 1 433 2 view .LVU249
	.loc 1 435 2 view .LVU250
	.loc 1 446 3 view .LVU251
.LBE44:
.LBE43:
	.loc 1 404 20 is_stmt 0 view .LVU252
	movs	r3, r0
	adds	r3, r3, #76
.LVL76:
.LBB49:
.LBB47:
	.loc 1 446 22 view .LVU253
	str	r3, [r0]
	b	.L74
.LVL77:
.L71:
	.loc 1 446 22 view .LVU254
.LBE47:
.LBE49:
	.loc 1 397 3 is_stmt 1 view .LVU255
	.loc 1 397 30 is_stmt 0 view .LVU256
	movs	r0, #76
.LVL78:
	.loc 1 397 30 view .LVU257
	bl	pvPortMalloc
.LVL79:
	.loc 1 397 30 view .LVU258
	subs	r4, r0, #0
.LVL80:
	.loc 1 399 3 is_stmt 1 view .LVU259
	.loc 1 399 5 is_stmt 0 view .LVU260
	beq	.L76
	.loc 1 403 4 is_stmt 1 view .LVU261
.LVL81:
	.loc 1 404 4 view .LVU262
	.loc 1 415 4 view .LVU263
.LBB50:
	.loc 1 429 13 view .LVU264
.LBB48:
	.loc 1 433 2 view .LVU265
	.loc 1 435 2 view .LVU266
	.loc 1 441 3 view .LVU267
	.loc 1 441 22 is_stmt 0 view .LVU268
	str	r4, [r4]
.LVL82:
.L74:
	.loc 1 451 2 is_stmt 1 view .LVU269
	.loc 1 451 23 is_stmt 0 view .LVU270
	str	r6, [r4, #60]
	.loc 1 452 2 is_stmt 1 view .LVU271
	.loc 1 452 25 is_stmt 0 view .LVU272
	str	r5, [r4, #64]
	.loc 1 453 2 is_stmt 1 view .LVU273
.LVL83:
.LBB45:
.LBI45:
	.loc 1 255 12 view .LVU274
.LBB46:
	.loc 1 257 1 view .LVU275
	.loc 1 259 2 view .LVU276
	movs	r1, #1
	movs	r0, r4
.LVL84:
	.loc 1 259 2 is_stmt 0 view .LVU277
	bl	xQueueGenericReset.part.0
.LVL85:
	.loc 1 259 2 view .LVU278
.LBE46:
.LBE45:
	.loc 1 463 3 is_stmt 1 view .LVU279
	.loc 1 463 35 is_stmt 0 view .LVU280
	movs	r3, #0
	str	r3, [r4, #72]
	.loc 1 467 2 is_stmt 1 view .LVU281
.LBE48:
.LBE50:
	.loc 1 419 4 view .LVU282
	.loc 1 420 4 view .LVU283
	.loc 1 423 3 view .LVU284
.LVL86:
.L70:
	.loc 1 424 2 is_stmt 0 view .LVU285
	movs	r0, r4
	@ sp needed
.LVL87:
.LVL88:
	.loc 1 424 2 view .LVU286
	pop	{r4, r5, r6, pc}
.LVL89:
.L76:
	.loc 1 397 30 view .LVU287
	movs	r4, #0
	b	.L70
	.cfi_endproc
.LFE33:
	.size	xQueueGenericCreate.part.2, .-xQueueGenericCreate.part.2
	.section	.text.xQueueReceiveFromISR.part.3,"ax",%progbits
	.align	1
	.p2align 2,,3
	.syntax unified
	.code	16
	.thumb_func
	.fpu softvfp
	.type	xQueueReceiveFromISR.part.3, %function
xQueueReceiveFromISR.part.3:
.LVL90:
.LFB34:
	.loc 1 1781 12 is_stmt 1 view -0
	.cfi_startproc
	@ args = 0, pretend = 0, frame = 0
	@ frame_needed = 0, uses_anonymous_args = 0
	.loc 1 1788 122 view .LVU289
	.loc 1 1804 2 view .LVU290
	.loc 1 1806 2 view .LVU291
	.loc 1 1781 12 is_stmt 0 view .LVU292
	push	{r4, r5, r6, r7, lr}
	.cfi_def_cfa_offset 20
	.cfi_offset 4, -20
	.cfi_offset 5, -16
	.cfi_offset 6, -12
	.cfi_offset 7, -8
	.cfi_offset 14, -4
	mov	lr, r10
	mov	r7, r9
	mov	r6, r8
	movs	r4, r0
	push	{r6, r7, lr}
	.cfi_def_cfa_offset 32
	.cfi_offset 8, -32
	.cfi_offset 9, -28
	.cfi_offset 10, -24
	.loc 1 1781 12 view .LVU293
	mov	r10, r1
	mov	r9, r2
	.loc 1 1806 27 view .LVU294
	bl	ulSetInterruptMaskFromISR
.LVL91:
.LBB51:
	.loc 1 1808 21 view .LVU295
	ldr	r5, [r4, #56]
.LBE51:
	.loc 1 1806 27 view .LVU296
	movs	r7, r0
.LVL92:
.LBB53:
	.loc 1 1808 3 is_stmt 1 view .LVU297
	.loc 1 1811 3 view .LVU298
	.loc 1 1862 12 is_stmt 0 view .LVU299
	movs	r6, #0
	.loc 1 1811 5 view .LVU300
	cmp	r5, #0
	bne	.L91
.LVL93:
.L78:
	.loc 1 1863 4 is_stmt 1 view .LVU301
.LBE53:
	.loc 1 1866 2 view .LVU302
	movs	r0, r7
	bl	vClearInterruptMaskFromISR
.LVL94:
	.loc 1 1868 2 view .LVU303
	.loc 1 1869 1 is_stmt 0 view .LVU304
	@ sp needed
	movs	r0, r6
.LVL95:
.LVL96:
.LVL97:
.LVL98:
.LVL99:
	.loc 1 1869 1 view .LVU305
	pop	{r2, r3, r4}
	mov	r8, r2
	mov	r9, r3
	mov	r10, r4
	pop	{r4, r5, r6, r7, pc}
.LVL100:
.L91:
.LBB54:
.LBB52:
	.loc 1 1813 4 is_stmt 1 view .LVU306
	.loc 1 1813 17 is_stmt 0 view .LVU307
	movs	r3, #68
	ldrb	r6, [r4, r3]
	.loc 1 1817 4 view .LVU308
	mov	r1, r10
	movs	r0, r4
.LVL101:
	.loc 1 1818 51 view .LVU309
	subs	r5, r5, #1
.LVL102:
	.loc 1 1813 17 view .LVU310
	sxtb	r6, r6
.LVL103:
	.loc 1 1815 4 is_stmt 1 view .LVU311
	.loc 1 1817 4 view .LVU312
	.loc 1 1813 17 is_stmt 0 view .LVU313
	mov	r8, r3
	.loc 1 1817 4 view .LVU314
	bl	prvCopyDataFromQueue
.LVL104:
	.loc 1 1818 4 is_stmt 1 view .LVU315
	.loc 1 1818 31 is_stmt 0 view .LVU316
	str	r5, [r4, #56]
	.loc 1 1824 4 is_stmt 1 view .LVU317
	.loc 1 1824 6 is_stmt 0 view .LVU318
	adds	r3, r6, #1
	beq	.L92
	.loc 1 1855 5 is_stmt 1 view .LVU319
	.loc 1 1855 22 is_stmt 0 view .LVU320
	mov	r3, r8
	.loc 1 1855 45 view .LVU321
	adds	r6, r6, #1
.LVL105:
	.loc 1 1855 24 view .LVU322
	sxtb	r6, r6
.LVL106:
	.loc 1 1855 22 view .LVU323
	strb	r6, [r4, r3]
.L90:
	.loc 1 1858 12 view .LVU324
	movs	r6, #1
	b	.L78
.LVL107:
.L92:
	.loc 1 1826 5 is_stmt 1 view .LVU325
	.loc 1 1826 50 is_stmt 0 view .LVU326
	ldr	r3, [r4, #16]
	.loc 1 1826 7 view .LVU327
	cmp	r3, #0
	beq	.L90
	.loc 1 1828 6 is_stmt 1 view .LVU328
	.loc 1 1828 36 is_stmt 0 view .LVU329
	movs	r0, r4
	adds	r0, r0, #16
	.loc 1 1828 10 view .LVU330
	bl	xTaskRemoveFromEventList
.LVL108:
	.loc 1 1828 8 view .LVU331
	cmp	r0, #0
	beq	.L90
	.loc 1 1832 7 is_stmt 1 view .LVU332
	.loc 1 1832 9 is_stmt 0 view .LVU333
	mov	r3, r9
	cmp	r3, #0
	beq	.L90
.LVL109:
	.loc 1 1834 8 is_stmt 1 view .LVU334
	.loc 1 1834 35 is_stmt 0 view .LVU335
	movs	r3, #1
.LVL110:
	.loc 1 1834 35 view .LVU336
	mov	r2, r9
	.loc 1 1858 12 view .LVU337
	movs	r6, #1
.LVL111:
	.loc 1 1834 35 view .LVU338
	str	r3, [r2]
	b	.L78
.LBE52:
.LBE54:
	.cfi_endproc
.LFE34:
	.size	xQueueReceiveFromISR.part.3, .-xQueueReceiveFromISR.part.3
	.section	.text.xQueueGenericReset,"ax",%progbits
	.align	1
	.p2align 2,,3
	.global	xQueueGenericReset
	.syntax unified
	.code	16
	.thumb_func
	.fpu softvfp
	.type	xQueueGenericReset, %function
xQueueGenericReset:
.LVL112:
.LFB0:
	.loc 1 256 1 is_stmt 1 view -0
	.cfi_startproc
	@ args = 0, pretend = 0, frame = 0
	@ frame_needed = 0, uses_anonymous_args = 0
	.loc 1 257 1 view .LVU340
	.loc 1 259 2 view .LVU341
	.loc 1 256 1 is_stmt 0 view .LVU342
	push	{r4, lr}
	.cfi_def_cfa_offset 8
	.cfi_offset 4, -8
	.cfi_offset 14, -4
	.loc 1 259 4 view .LVU343
	cmp	r0, #0
	beq	.L96
	bl	xQueueGenericReset.part.0
.LVL113:
	.loc 1 305 1 discriminator 2 view .LVU344
	@ sp needed
	pop	{r4, pc}
.LVL114:
.L96:
	.loc 1 259 27 is_stmt 1 discriminator 1 view .LVU345
	.syntax divided
@ 259 "../FreeRTOS/Source/queue.c" 1
	 cpsid i 
@ 0 "" 2
	.thumb
	.syntax unified
.L95:
	.loc 1 259 72 discriminator 1 view .LVU346
	.loc 1 259 81 discriminator 1 view .LVU347
	.loc 1 259 72 discriminator 1 view .LVU348
	.loc 1 259 81 discriminator 1 view .LVU349
	b	.L95
	.cfi_endproc
.LFE0:
	.size	xQueueGenericReset, .-xQueueGenericReset
	.section	.text.xQueueGenericCreate,"ax",%progbits
	.align	1
	.p2align 2,,3
	.global	xQueueGenericCreate
	.syntax unified
	.code	16
	.thumb_func
	.fpu softvfp
	.type	xQueueGenericCreate, %function
xQueueGenericCreate:
.LVL115:
.LFB1:
	.loc 1 369 2 view -0
	.cfi_startproc
	@ args = 0, pretend = 0, frame = 0
	@ frame_needed = 0, uses_anonymous_args = 0
	.loc 1 370 2 view .LVU351
	.loc 1 371 2 view .LVU352
	.loc 1 372 2 view .LVU353
	.loc 1 374 3 view .LVU354
	.loc 1 369 2 is_stmt 0 view .LVU355
	push	{r4, lr}
	.cfi_def_cfa_offset 8
	.cfi_offset 4, -8
	.cfi_offset 14, -4
	.loc 1 374 5 view .LVU356
	cmp	r0, #0
	bne	.L98
	.loc 1 374 54 is_stmt 1 discriminator 1 view .LVU357
	.syntax divided
@ 374 "../FreeRTOS/Source/queue.c" 1
	 cpsid i 
@ 0 "" 2
	.thumb
	.syntax unified
.L99:
	.loc 1 374 99 discriminator 1 view .LVU358
	.loc 1 374 108 discriminator 1 view .LVU359
	.loc 1 374 99 discriminator 1 view .LVU360
	.loc 1 374 108 discriminator 1 view .LVU361
	b	.L99
.L98:
	bl	xQueueGenericCreate.part.2
.LVL116:
	.loc 1 419 4 discriminator 2 view .LVU362
	.loc 1 420 4 discriminator 2 view .LVU363
	.loc 1 423 3 discriminator 2 view .LVU364
	.loc 1 424 2 is_stmt 0 discriminator 2 view .LVU365
	@ sp needed
	pop	{r4, pc}
	.cfi_endproc
.LFE1:
	.size	xQueueGenericCreate, .-xQueueGenericCreate
	.section	.text.xQueueGenericSend,"ax",%progbits
	.align	1
	.p2align 2,,3
	.global	xQueueGenericSend
	.syntax unified
	.code	16
	.thumb_func
	.fpu softvfp
	.type	xQueueGenericSend, %function
xQueueGenericSend:
.LVL117:
.LFB3:
	.loc 1 748 1 is_stmt 1 view -0
	.cfi_startproc
	@ args = 0, pretend = 0, frame = 16
	@ frame_needed = 0, uses_anonymous_args = 0
	.loc 1 749 1 view .LVU367
	.loc 1 750 1 view .LVU368
	.loc 1 751 1 view .LVU369
	.loc 1 753 2 view .LVU370
	.loc 1 748 1 is_stmt 0 view .LVU371
	push	{r4, r5, r6, r7, lr}
	.cfi_def_cfa_offset 20
	.cfi_offset 4, -20
	.cfi_offset 5, -16
	.cfi_offset 6, -12
	.cfi_offset 7, -8
	.cfi_offset 14, -4
	mov	lr, r9
	mov	r7, r8
	push	{r7, lr}
	.cfi_def_cfa_offset 28
	.cfi_offset 8, -28
	.cfi_offset 9, -24
	sub	sp, sp, #20
	.cfi_def_cfa_offset 48
	.loc 1 748 1 view .LVU372
	movs	r4, r0
	movs	r6, r1
	str	r2, [sp, #4]
	movs	r5, r3
	.loc 1 753 4 view .LVU373
	cmp	r0, #0
	beq	.L142
	.loc 1 753 84 is_stmt 1 discriminator 2 view .LVU374
	.loc 1 754 2 discriminator 2 view .LVU375
	.loc 1 754 8 is_stmt 0 discriminator 2 view .LVU376
	cmp	r1, #0
	beq	.L143
.LVL118:
.L103:
	.loc 1 754 122 is_stmt 1 discriminator 8 view .LVU377
	.loc 1 755 2 discriminator 8 view .LVU378
	movs	r3, #0
	mov	r9, r3
	.loc 1 755 8 is_stmt 0 discriminator 8 view .LVU379
	cmp	r5, #2
	beq	.L144
.L105:
	.loc 1 910 42 discriminator 8 view .LVU380
	movs	r3, #68
	.loc 1 910 98 discriminator 8 view .LVU381
	movs	r7, #0
	.loc 1 910 42 discriminator 8 view .LVU382
	mov	r8, r3
	b	.L107
.LVL119:
.L148:
.LBB55:
.LBB56:
	.loc 1 2339 4 is_stmt 1 view .LVU383
	.loc 1 2342 2 view .LVU384
	bl	vPortExitCritical
.LVL120:
	.loc 1 2344 2 view .LVU385
	.loc 1 2344 2 is_stmt 0 view .LVU386
.LBE56:
.LBE55:
	.loc 1 940 5 is_stmt 1 view .LVU387
	movs	r0, r4
	bl	prvUnlockQueue
.LVL121:
	.loc 1 941 5 view .LVU388
	.loc 1 941 14 is_stmt 0 view .LVU389
	bl	xTaskResumeAll
.LVL122:
.L125:
	.loc 1 941 14 view .LVU390
	movs	r3, #1
	mov	r9, r3
.LVL123:
.L107:
	.loc 1 755 153 is_stmt 1 discriminator 8 view .LVU391
	.loc 1 766 2 discriminator 8 view .LVU392
	.loc 1 768 3 discriminator 8 view .LVU393
	bl	vPortEnterCritical
.LVL124:
	.loc 1 774 4 discriminator 8 view .LVU394
	.loc 1 774 17 is_stmt 0 discriminator 8 view .LVU395
	ldr	r3, [r4, #56]
	.loc 1 774 6 discriminator 8 view .LVU396
	ldr	r2, [r4, #60]
	cmp	r3, r2
	bcc	.L108
	.loc 1 774 59 discriminator 1 view .LVU397
	cmp	r5, #2
	beq	.L145
	.loc 1 879 5 is_stmt 1 view .LVU398
	.loc 1 879 7 is_stmt 0 view .LVU399
	ldr	r3, [sp, #4]
	cmp	r3, #0
	bne	.LCB1089
	b	.L146	@long jump
.LCB1089:
	.loc 1 890 10 is_stmt 1 view .LVU400
	.loc 1 890 12 is_stmt 0 view .LVU401
	mov	r3, r9
	cmp	r3, #0
	beq	.L147
.LVL125:
.L120:
	.loc 1 900 6 is_stmt 1 view .LVU402
	.loc 1 904 3 view .LVU403
	bl	vPortExitCritical
.LVL126:
	.loc 1 909 3 view .LVU404
	bl	vTaskSuspendAll
.LVL127:
	.loc 1 910 3 view .LVU405
	bl	vPortEnterCritical
.LVL128:
	.loc 1 910 27 view .LVU406
	.loc 1 910 42 is_stmt 0 view .LVU407
	mov	r3, r8
	ldrb	r3, [r4, r3]
	sxtb	r3, r3
	.loc 1 910 29 view .LVU408
	adds	r3, r3, #1
	bne	.L121
	.loc 1 910 77 is_stmt 1 discriminator 1 view .LVU409
	.loc 1 910 98 is_stmt 0 discriminator 1 view .LVU410
	mov	r3, r8
	strb	r7, [r4, r3]
.L121:
	.loc 1 910 120 is_stmt 1 discriminator 3 view .LVU411
	.loc 1 910 135 is_stmt 0 discriminator 3 view .LVU412
	movs	r2, #69
	ldrb	r3, [r4, r2]
	sxtb	r3, r3
	.loc 1 910 122 discriminator 3 view .LVU413
	adds	r3, r3, #1
	bne	.L122
	.loc 1 910 170 is_stmt 1 discriminator 4 view .LVU414
	.loc 1 910 191 is_stmt 0 discriminator 4 view .LVU415
	strb	r7, [r4, r2]
.L122:
	.loc 1 910 215 is_stmt 1 discriminator 6 view .LVU416
	bl	vPortExitCritical
.LVL129:
	.loc 1 913 3 discriminator 6 view .LVU417
	.loc 1 913 7 is_stmt 0 discriminator 6 view .LVU418
	add	r1, sp, #4
	add	r0, sp, #8
	bl	xTaskCheckForTimeOut
.LVL130:
	.loc 1 913 5 discriminator 6 view .LVU419
	cmp	r0, #0
	bne	.L123
	.loc 1 915 4 is_stmt 1 view .LVU420
.LVL131:
.LBB58:
.LBI55:
	.loc 1 2327 19 view .LVU421
.LBB57:
	.loc 1 2329 1 view .LVU422
	.loc 1 2331 2 view .LVU423
	bl	vPortEnterCritical
.LVL132:
	.loc 1 2333 3 view .LVU424
	.loc 1 2333 14 is_stmt 0 view .LVU425
	ldr	r3, [r4, #56]
	.loc 1 2333 5 view .LVU426
	ldr	r2, [r4, #60]
	cmp	r3, r2
	bne	.L148
.LVL133:
	.loc 1 2342 2 is_stmt 1 view .LVU427
	bl	vPortExitCritical
.LVL134:
	.loc 1 2344 2 view .LVU428
	.loc 1 2344 2 is_stmt 0 view .LVU429
.LBE57:
.LBE58:
	.loc 1 917 5 is_stmt 1 view .LVU430
	.loc 1 918 5 view .LVU431
	movs	r0, r4
	ldr	r1, [sp, #4]
	adds	r0, r0, #16
	bl	vTaskPlaceOnEventList
.LVL135:
	.loc 1 925 5 view .LVU432
	movs	r0, r4
	bl	prvUnlockQueue
.LVL136:
	.loc 1 932 5 view .LVU433
	.loc 1 932 9 is_stmt 0 view .LVU434
	bl	xTaskResumeAll
.LVL137:
	.loc 1 932 7 view .LVU435
	cmp	r0, #0
	bne	.L125
	.loc 1 934 6 is_stmt 1 view .LVU436
	bl	vPortYield
.LVL138:
	b	.L125
.LVL139:
.L143:
	.loc 1 754 8 is_stmt 0 discriminator 2 view .LVU437
	ldr	r3, [r0, #64]
.LVL140:
	.loc 1 754 8 discriminator 2 view .LVU438
	cmp	r3, #0
	beq	.L103
	.loc 1 754 65 is_stmt 1 view .LVU439
	.syntax divided
@ 754 "../FreeRTOS/Source/queue.c" 1
	 cpsid i 
@ 0 "" 2
	.thumb
	.syntax unified
.L104:
	.loc 1 754 110 discriminator 2 view .LVU440
	.loc 1 754 119 discriminator 2 view .LVU441
	.loc 1 754 110 discriminator 2 view .LVU442
	.loc 1 754 119 discriminator 2 view .LVU443
	b	.L104
.L144:
	.loc 1 755 8 is_stmt 0 discriminator 2 view .LVU444
	ldr	r3, [r4, #60]
	cmp	r3, #1
	beq	.L105
	.loc 1 755 96 is_stmt 1 view .LVU445
	.syntax divided
@ 755 "../FreeRTOS/Source/queue.c" 1
	 cpsid i 
@ 0 "" 2
	.thumb
	.syntax unified
.L106:
	.loc 1 755 141 discriminator 3 view .LVU446
	.loc 1 755 150 discriminator 3 view .LVU447
	.loc 1 755 141 discriminator 3 view .LVU448
	.loc 1 755 150 discriminator 3 view .LVU449
	b	.L106
.LVL141:
.L147:
	.loc 1 894 6 view .LVU450
	add	r0, sp, #8
	bl	vTaskInternalSetTimeOutState
.LVL142:
	.loc 1 895 6 view .LVU451
	.loc 1 895 6 is_stmt 0 view .LVU452
	b	.L120
.LVL143:
.L142:
	.loc 1 753 27 is_stmt 1 discriminator 1 view .LVU453
	.syntax divided
@ 753 "../FreeRTOS/Source/queue.c" 1
	 cpsid i 
@ 0 "" 2
	.thumb
	.syntax unified
.L102:
	.loc 1 753 72 discriminator 1 view .LVU454
	.loc 1 753 81 discriminator 1 view .LVU455
	.loc 1 753 72 discriminator 1 view .LVU456
	.loc 1 753 81 discriminator 1 view .LVU457
	b	.L102
.LVL144:
.L108:
	.loc 1 776 5 view .LVU458
.LBB59:
	.loc 1 780 5 view .LVU459
	.loc 1 782 23 is_stmt 0 view .LVU460
	movs	r2, r5
	movs	r1, r6
	movs	r0, r4
	.loc 1 780 17 view .LVU461
	ldr	r7, [r4, #56]
.LVL145:
	.loc 1 782 6 is_stmt 1 view .LVU462
	.loc 1 782 23 is_stmt 0 view .LVU463
	bl	prvCopyDataToQueue
.LVL146:
	.loc 1 784 6 is_stmt 1 view .LVU464
	.loc 1 784 8 is_stmt 0 view .LVU465
	ldr	r3, [r4, #72]
	cmp	r3, #0
	beq	.L111
	.loc 1 786 7 is_stmt 1 view .LVU466
	.loc 1 786 9 is_stmt 0 view .LVU467
	cmp	r5, #2
	beq	.L112
.L115:
	.loc 1 793 12 is_stmt 1 view .LVU468
	.loc 1 793 16 is_stmt 0 view .LVU469
	movs	r1, r5
	movs	r0, r4
.LVL147:
	.loc 1 793 16 view .LVU470
	bl	prvNotifyQueueSetContainer
.LVL148:
	.loc 1 793 14 view .LVU471
	cmp	r0, #0
	bne	.L113
.L116:
	.loc 1 834 8 is_stmt 1 view .LVU472
.LBE59:
	.loc 1 874 5 view .LVU473
	bl	vPortExitCritical
.LVL149:
	.loc 1 875 5 view .LVU474
	.loc 1 875 12 is_stmt 0 view .LVU475
	movs	r0, #1
.LVL150:
.L100:
	.loc 1 954 1 view .LVU476
	add	sp, sp, #20
	@ sp needed
.LVL151:
.LVL152:
.LVL153:
	.loc 1 954 1 view .LVU477
	pop	{r2, r3}
	mov	r8, r2
	mov	r9, r3
	pop	{r4, r5, r6, r7, pc}
.LVL154:
.L145:
	.loc 1 776 5 is_stmt 1 view .LVU478
.LBB60:
	.loc 1 780 5 view .LVU479
	.loc 1 782 23 is_stmt 0 view .LVU480
	movs	r2, #2
	movs	r1, r6
	movs	r0, r4
	.loc 1 780 17 view .LVU481
	ldr	r7, [r4, #56]
.LVL155:
	.loc 1 782 6 is_stmt 1 view .LVU482
	.loc 1 782 23 is_stmt 0 view .LVU483
	bl	prvCopyDataToQueue
.LVL156:
	.loc 1 784 6 is_stmt 1 view .LVU484
	.loc 1 784 8 is_stmt 0 view .LVU485
	ldr	r3, [r4, #72]
	cmp	r3, #0
	bne	.L112
.L111:
	.loc 1 809 7 is_stmt 1 view .LVU486
	.loc 1 809 55 is_stmt 0 view .LVU487
	ldr	r3, [r4, #36]
	.loc 1 809 9 view .LVU488
	cmp	r3, #0
	bne	.L149
	.loc 1 824 12 is_stmt 1 view .LVU489
	.loc 1 824 14 is_stmt 0 view .LVU490
	cmp	r0, #0
	beq	.L116
.LVL157:
.L113:
	.loc 1 798 8 is_stmt 1 view .LVU491
	bl	vPortYield
.LVL158:
	b	.L116
.LVL159:
.L112:
	.loc 1 786 53 is_stmt 0 discriminator 1 view .LVU492
	cmp	r7, #0
	beq	.L115
	b	.L116
.LVL160:
.L123:
	.loc 1 786 53 discriminator 1 view .LVU493
.LBE60:
	.loc 1 947 4 is_stmt 1 view .LVU494
	movs	r0, r4
	bl	prvUnlockQueue
.LVL161:
	.loc 1 948 4 view .LVU495
	.loc 1 948 13 is_stmt 0 view .LVU496
	bl	xTaskResumeAll
.LVL162:
	.loc 1 950 4 is_stmt 1 view .LVU497
	.loc 1 951 4 view .LVU498
	.loc 1 951 11 is_stmt 0 view .LVU499
	movs	r0, #0
	b	.L100
.LVL163:
.L146:
	.loc 1 883 6 is_stmt 1 view .LVU500
	bl	vPortExitCritical
.LVL164:
	.loc 1 887 6 view .LVU501
	.loc 1 888 6 view .LVU502
	.loc 1 888 13 is_stmt 0 view .LVU503
	movs	r0, #0
	b	.L100
.LVL165:
.L149:
.LBB61:
	.loc 1 811 8 is_stmt 1 view .LVU504
	.loc 1 811 38 is_stmt 0 view .LVU505
	movs	r0, r4
.LVL166:
	.loc 1 811 38 view .LVU506
	adds	r0, r0, #36
	.loc 1 811 12 view .LVU507
	bl	xTaskRemoveFromEventList
.LVL167:
	.loc 1 811 10 view .LVU508
	cmp	r0, #0
	beq	.L116
	b	.L113
.LBE61:
	.cfi_endproc
.LFE3:
	.size	xQueueGenericSend, .-xQueueGenericSend
	.section	.text.xQueueGenericSendFromISR,"ax",%progbits
	.align	1
	.p2align 2,,3
	.global	xQueueGenericSendFromISR
	.syntax unified
	.code	16
	.thumb_func
	.fpu softvfp
	.type	xQueueGenericSendFromISR, %function
xQueueGenericSendFromISR:
.LVL168:
.LFB4:
	.loc 1 958 1 is_stmt 1 view -0
	.cfi_startproc
	@ args = 0, pretend = 0, frame = 0
	@ frame_needed = 0, uses_anonymous_args = 0
	.loc 1 959 1 view .LVU510
	.loc 1 960 1 view .LVU511
	.loc 1 961 1 view .LVU512
	.loc 1 963 2 view .LVU513
	.loc 1 958 1 is_stmt 0 view .LVU514
	push	{r4, r5, r6, r7, lr}
	.cfi_def_cfa_offset 20
	.cfi_offset 4, -20
	.cfi_offset 5, -16
	.cfi_offset 6, -12
	.cfi_offset 7, -8
	.cfi_offset 14, -4
	mov	lr, r10
	mov	r7, r9
	mov	r6, r8
	movs	r4, r0
	push	{r6, r7, lr}
	.cfi_def_cfa_offset 32
	.cfi_offset 8, -32
	.cfi_offset 9, -28
	.cfi_offset 10, -24
	.loc 1 958 1 view .LVU515
	mov	r10, r1
	movs	r6, r2
	mov	r9, r3
	.loc 1 963 4 view .LVU516
	cmp	r0, #0
	beq	.L177
	.loc 1 963 84 is_stmt 1 discriminator 2 view .LVU517
	.loc 1 964 2 discriminator 2 view .LVU518
	.loc 1 964 8 is_stmt 0 discriminator 2 view .LVU519
	cmp	r1, #0
	beq	.L178
.LVL169:
.L153:
	.loc 1 964 122 is_stmt 1 discriminator 8 view .LVU520
	.loc 1 965 2 discriminator 8 view .LVU521
	.loc 1 965 8 is_stmt 0 discriminator 8 view .LVU522
	mov	r3, r9
	cmp	r3, #2
	bne	.L155
.LVL170:
	.loc 1 965 8 discriminator 2 view .LVU523
	ldr	r3, [r4, #60]
.LVL171:
	.loc 1 965 8 discriminator 2 view .LVU524
	cmp	r3, #1
	beq	.L156
	.loc 1 965 96 is_stmt 1 view .LVU525
	.syntax divided
@ 965 "../FreeRTOS/Source/queue.c" 1
	 cpsid i 
@ 0 "" 2
	.thumb
	.syntax unified
.L157:
	.loc 1 965 141 discriminator 3 view .LVU526
	.loc 1 965 150 discriminator 3 view .LVU527
	.loc 1 965 141 discriminator 3 view .LVU528
	.loc 1 965 150 discriminator 3 view .LVU529
	b	.L157
.LVL172:
.L155:
	.loc 1 965 153 view .LVU530
	.loc 1 981 2 view .LVU531
	.loc 1 988 2 view .LVU532
	.loc 1 988 27 is_stmt 0 view .LVU533
	bl	ulSetInterruptMaskFromISR
.LVL173:
	.loc 1 990 16 view .LVU534
	ldr	r3, [r4, #56]
	.loc 1 990 5 view .LVU535
	ldr	r2, [r4, #60]
	.loc 1 988 27 view .LVU536
	movs	r7, r0
.LVL174:
	.loc 1 990 3 is_stmt 1 view .LVU537
	.loc 1 990 5 is_stmt 0 view .LVU538
	cmp	r3, r2
	bcc	.L161
	.loc 1 1099 12 view .LVU539
	movs	r5, #0
.LVL175:
.L160:
	.loc 1 1102 2 is_stmt 1 view .LVU540
	movs	r0, r7
	bl	vClearInterruptMaskFromISR
.LVL176:
	.loc 1 1104 2 view .LVU541
	.loc 1 1105 1 is_stmt 0 view .LVU542
	@ sp needed
	movs	r0, r5
.LVL177:
.LVL178:
.LVL179:
.LVL180:
.LVL181:
.LVL182:
	.loc 1 1105 1 view .LVU543
	pop	{r2, r3, r4}
	mov	r8, r2
	mov	r9, r3
	mov	r10, r4
	pop	{r4, r5, r6, r7, pc}
.LVL183:
.L178:
	.loc 1 964 8 discriminator 2 view .LVU544
	ldr	r3, [r0, #64]
.LVL184:
	.loc 1 964 8 discriminator 2 view .LVU545
	cmp	r3, #0
	beq	.L153
	.loc 1 964 65 is_stmt 1 view .LVU546
	.syntax divided
@ 964 "../FreeRTOS/Source/queue.c" 1
	 cpsid i 
@ 0 "" 2
	.thumb
	.syntax unified
.L154:
	.loc 1 964 110 discriminator 2 view .LVU547
	.loc 1 964 119 discriminator 2 view .LVU548
	.loc 1 964 110 discriminator 2 view .LVU549
	.loc 1 964 119 discriminator 2 view .LVU550
	b	.L154
.LVL185:
.L177:
	.loc 1 963 27 discriminator 1 view .LVU551
	.syntax divided
@ 963 "../FreeRTOS/Source/queue.c" 1
	 cpsid i 
@ 0 "" 2
	.thumb
	.syntax unified
.L152:
	.loc 1 963 72 discriminator 1 view .LVU552
	.loc 1 963 81 discriminator 1 view .LVU553
	.loc 1 963 72 discriminator 1 view .LVU554
	.loc 1 963 81 discriminator 1 view .LVU555
	b	.L152
.LVL186:
.L156:
	.loc 1 965 153 view .LVU556
	.loc 1 981 2 view .LVU557
	.loc 1 988 2 view .LVU558
	.loc 1 988 27 is_stmt 0 view .LVU559
	bl	ulSetInterruptMaskFromISR
.LVL187:
	.loc 1 988 27 view .LVU560
	movs	r7, r0
.LVL188:
	.loc 1 990 3 is_stmt 1 view .LVU561
	.loc 1 990 16 is_stmt 0 view .LVU562
	ldr	r3, [r4, #56]
.L161:
.LBB62:
	.loc 1 992 4 is_stmt 1 view .LVU563
	.loc 1 992 17 is_stmt 0 view .LVU564
	movs	r3, #69
	ldrb	r5, [r4, r3]
	.loc 1 1001 13 view .LVU565
	mov	r2, r9
	.loc 1 992 17 view .LVU566
	sxtb	r5, r5
.LVL189:
	.loc 1 994 4 is_stmt 1 view .LVU567
	.loc 1 1001 4 view .LVU568
	.loc 1 1001 13 is_stmt 0 view .LVU569
	mov	r1, r10
	movs	r0, r4
.LVL190:
	.loc 1 992 17 view .LVU570
	mov	r8, r3
	.loc 1 1001 13 view .LVU571
	bl	prvCopyDataToQueue
.LVL191:
	.loc 1 1005 4 is_stmt 1 view .LVU572
	.loc 1 1005 6 is_stmt 0 view .LVU573
	adds	r3, r5, #1
	beq	.L179
	.loc 1 1091 5 is_stmt 1 view .LVU574
	.loc 1 1091 22 is_stmt 0 view .LVU575
	mov	r3, r8
	.loc 1 1091 45 view .LVU576
	adds	r5, r5, #1
.LVL192:
	.loc 1 1091 24 view .LVU577
	sxtb	r5, r5
.LVL193:
	.loc 1 1091 22 view .LVU578
	strb	r5, [r4, r3]
	.loc 1 1094 12 view .LVU579
	movs	r5, #1
	b	.L160
.LVL194:
.L179:
	.loc 1 1009 6 is_stmt 1 view .LVU580
	.loc 1 1009 8 is_stmt 0 view .LVU581
	ldr	r3, [r4, #72]
	cmp	r3, #0
	beq	.L159
	.loc 1 1011 7 is_stmt 1 view .LVU582
	.loc 1 1011 11 is_stmt 0 view .LVU583
	mov	r1, r9
	movs	r0, r4
	bl	prvNotifyQueueSetContainer
.LVL195:
	.loc 1 1094 12 view .LVU584
	adds	r5, r5, #2
.LVL196:
	.loc 1 1011 9 view .LVU585
	cmp	r0, #0
	beq	.L160
.LVL197:
.L176:
	.loc 1 1038 9 is_stmt 1 view .LVU586
	.loc 1 1038 11 is_stmt 0 view .LVU587
	cmp	r6, #0
	beq	.L160
	.loc 1 1040 10 is_stmt 1 view .LVU588
	.loc 1 1040 37 is_stmt 0 view .LVU589
	str	r5, [r6]
	b	.L160
.LVL198:
.L159:
	.loc 1 1032 7 is_stmt 1 view .LVU590
	.loc 1 1032 55 is_stmt 0 view .LVU591
	ldr	r3, [r4, #36]
	.loc 1 1094 12 view .LVU592
	movs	r5, #1
.LVL199:
	.loc 1 1032 9 view .LVU593
	cmp	r3, #0
	beq	.L160
	.loc 1 1034 8 is_stmt 1 view .LVU594
	.loc 1 1034 38 is_stmt 0 view .LVU595
	movs	r0, r4
	adds	r0, r0, #36
	.loc 1 1034 12 view .LVU596
	bl	xTaskRemoveFromEventList
.LVL200:
	.loc 1 1034 10 view .LVU597
	cmp	r0, #0
	beq	.L160
	b	.L176
.LBE62:
	.cfi_endproc
.LFE4:
	.size	xQueueGenericSendFromISR, .-xQueueGenericSendFromISR
	.section	.text.xQueueGiveFromISR,"ax",%progbits
	.align	1
	.p2align 2,,3
	.global	xQueueGiveFromISR
	.syntax unified
	.code	16
	.thumb_func
	.fpu softvfp
	.type	xQueueGiveFromISR, %function
xQueueGiveFromISR:
.LVL201:
.LFB5:
	.loc 1 1109 1 is_stmt 1 view -0
	.cfi_startproc
	@ args = 0, pretend = 0, frame = 0
	@ frame_needed = 0, uses_anonymous_args = 0
	.loc 1 1110 1 view .LVU599
	.loc 1 1111 1 view .LVU600
	.loc 1 1112 1 view .LVU601
	.loc 1 1120 2 view .LVU602
	.loc 1 1109 1 is_stmt 0 view .LVU603
	push	{r3, r4, r5, r6, r7, lr}
	.cfi_def_cfa_offset 24
	.cfi_offset 3, -24
	.cfi_offset 4, -20
	.cfi_offset 5, -16
	.cfi_offset 6, -12
	.cfi_offset 7, -8
	.cfi_offset 14, -4
	.loc 1 1109 1 view .LVU604
	movs	r4, r0
	movs	r7, r1
	.loc 1 1120 4 view .LVU605
	cmp	r0, #0
	beq	.L203
	.loc 1 1120 84 is_stmt 1 discriminator 2 view .LVU606
	.loc 1 1124 2 discriminator 2 view .LVU607
	.loc 1 1124 4 is_stmt 0 discriminator 2 view .LVU608
	ldr	r3, [r0, #64]
	cmp	r3, #0
	beq	.L183
	.loc 1 1124 44 is_stmt 1 discriminator 1 view .LVU609
	.syntax divided
@ 1124 "../FreeRTOS/Source/queue.c" 1
	 cpsid i 
@ 0 "" 2
	.thumb
	.syntax unified
.L184:
	.loc 1 1124 89 discriminator 2 view .LVU610
	.loc 1 1124 98 discriminator 2 view .LVU611
	.loc 1 1124 89 discriminator 2 view .LVU612
	.loc 1 1124 98 discriminator 2 view .LVU613
	b	.L184
.L183:
	.loc 1 1124 101 discriminator 2 view .LVU614
	.loc 1 1129 2 discriminator 2 view .LVU615
	.loc 1 1129 8 is_stmt 0 discriminator 2 view .LVU616
	ldr	r3, [r0]
	cmp	r3, #0
	beq	.L204
.L185:
	.loc 1 1129 73 is_stmt 1 discriminator 8 view .LVU617
	.loc 1 1145 2 discriminator 8 view .LVU618
	.loc 1 1147 2 discriminator 8 view .LVU619
	.loc 1 1147 27 is_stmt 0 discriminator 8 view .LVU620
	bl	ulSetInterruptMaskFromISR
.LVL202:
.LBB63:
	.loc 1 1149 21 discriminator 8 view .LVU621
	ldr	r2, [r4, #56]
	.loc 1 1154 5 discriminator 8 view .LVU622
	ldr	r3, [r4, #60]
.LBE63:
	.loc 1 1147 27 discriminator 8 view .LVU623
	movs	r6, r0
.LVL203:
.LBB66:
	.loc 1 1149 3 is_stmt 1 discriminator 8 view .LVU624
	.loc 1 1154 3 discriminator 8 view .LVU625
	.loc 1 1264 12 is_stmt 0 discriminator 8 view .LVU626
	movs	r5, #0
	.loc 1 1154 5 discriminator 8 view .LVU627
	cmp	r3, r2
	bls	.L187
.LBB64:
	.loc 1 1156 4 is_stmt 1 view .LVU628
	.loc 1 1156 17 is_stmt 0 view .LVU629
	movs	r1, #69
	ldrb	r3, [r4, r1]
	.loc 1 1166 51 view .LVU630
	adds	r2, r2, #1
.LVL204:
	.loc 1 1156 17 view .LVU631
	sxtb	r3, r3
.LVL205:
	.loc 1 1158 4 is_stmt 1 view .LVU632
	.loc 1 1166 4 view .LVU633
	.loc 1 1166 31 is_stmt 0 view .LVU634
	str	r2, [r4, #56]
	.loc 1 1170 4 is_stmt 1 view .LVU635
	.loc 1 1170 6 is_stmt 0 view .LVU636
	adds	r2, r3, #1
	beq	.L205
.LVL206:
	.loc 1 1256 5 is_stmt 1 view .LVU637
	.loc 1 1256 45 is_stmt 0 view .LVU638
	adds	r3, r3, #1
.LVL207:
	.loc 1 1256 24 view .LVU639
	sxtb	r3, r3
.LVL208:
	.loc 1 1256 22 view .LVU640
	strb	r3, [r4, r1]
.LVL209:
.L202:
	.loc 1 1259 12 view .LVU641
	movs	r5, #1
.L187:
.LVL210:
	.loc 1 1259 12 view .LVU642
.LBE64:
.LBE66:
	.loc 1 1267 2 is_stmt 1 view .LVU643
	movs	r0, r6
	bl	vClearInterruptMaskFromISR
.LVL211:
	.loc 1 1269 2 view .LVU644
	.loc 1 1270 1 is_stmt 0 view .LVU645
	@ sp needed
	movs	r0, r5
.LVL212:
.LVL213:
.LVL214:
.LVL215:
	.loc 1 1270 1 view .LVU646
	pop	{r3, r4, r5, r6, r7, pc}
.LVL216:
.L203:
	.loc 1 1120 27 is_stmt 1 discriminator 1 view .LVU647
	.syntax divided
@ 1120 "../FreeRTOS/Source/queue.c" 1
	 cpsid i 
@ 0 "" 2
	.thumb
	.syntax unified
.L182:
	.loc 1 1120 72 discriminator 1 view .LVU648
	.loc 1 1120 81 discriminator 1 view .LVU649
	.loc 1 1120 72 discriminator 1 view .LVU650
	.loc 1 1120 81 discriminator 1 view .LVU651
	b	.L182
.L204:
	.loc 1 1129 8 is_stmt 0 discriminator 2 view .LVU652
	ldr	r3, [r0, #8]
	cmp	r3, #0
	beq	.L185
	.loc 1 1129 16 is_stmt 1 view .LVU653
	.syntax divided
@ 1129 "../FreeRTOS/Source/queue.c" 1
	 cpsid i 
@ 0 "" 2
	.thumb
	.syntax unified
.L186:
	.loc 1 1129 61 discriminator 3 view .LVU654
	.loc 1 1129 70 discriminator 3 view .LVU655
	.loc 1 1129 61 discriminator 3 view .LVU656
	.loc 1 1129 70 discriminator 3 view .LVU657
	b	.L186
.LVL217:
.L205:
.LBB67:
.LBB65:
	.loc 1 1174 6 view .LVU658
	.loc 1 1174 8 is_stmt 0 view .LVU659
	ldr	r3, [r4, #72]
.LVL218:
	.loc 1 1174 8 view .LVU660
	cmp	r3, #0
	beq	.L189
	.loc 1 1176 7 is_stmt 1 view .LVU661
	.loc 1 1176 11 is_stmt 0 view .LVU662
	movs	r1, #0
	movs	r0, r4
.LVL219:
	.loc 1 1176 11 view .LVU663
	bl	prvNotifyQueueSetContainer
.LVL220:
	.loc 1 1176 9 view .LVU664
	cmp	r0, #0
	beq	.L202
.L190:
	.loc 1 1181 8 is_stmt 1 view .LVU665
	.loc 1 1181 10 is_stmt 0 view .LVU666
	cmp	r7, #0
	beq	.L202
	.loc 1 1183 9 is_stmt 1 view .LVU667
	.loc 1 1183 36 is_stmt 0 view .LVU668
	movs	r3, #1
	.loc 1 1259 12 view .LVU669
	movs	r5, #1
	.loc 1 1183 36 view .LVU670
	str	r3, [r7]
	b	.L187
.LVL221:
.L189:
	.loc 1 1197 7 is_stmt 1 view .LVU671
	.loc 1 1197 55 is_stmt 0 view .LVU672
	ldr	r3, [r4, #36]
	.loc 1 1197 9 view .LVU673
	cmp	r3, #0
	beq	.L202
	.loc 1 1199 8 is_stmt 1 view .LVU674
	.loc 1 1199 38 is_stmt 0 view .LVU675
	movs	r0, r4
.LVL222:
	.loc 1 1199 38 view .LVU676
	adds	r0, r0, #36
	.loc 1 1199 12 view .LVU677
	bl	xTaskRemoveFromEventList
.LVL223:
	.loc 1 1199 10 view .LVU678
	cmp	r0, #0
	bne	.L190
	.loc 1 1259 12 view .LVU679
	movs	r5, #1
	b	.L187
.LBE65:
.LBE67:
	.cfi_endproc
.LFE5:
	.size	xQueueGiveFromISR, .-xQueueGiveFromISR
	.section	.text.xQueueReceive,"ax",%progbits
	.align	1
	.p2align 2,,3
	.global	xQueueReceive
	.syntax unified
	.code	16
	.thumb_func
	.fpu softvfp
	.type	xQueueReceive, %function
xQueueReceive:
.LVL224:
.LFB6:
	.loc 1 1274 1 is_stmt 1 view -0
	.cfi_startproc
	@ args = 0, pretend = 0, frame = 16
	@ frame_needed = 0, uses_anonymous_args = 0
	.loc 1 1275 1 view .LVU681
	.loc 1 1276 1 view .LVU682
	.loc 1 1277 1 view .LVU683
	.loc 1 1280 2 view .LVU684
	.loc 1 1274 1 is_stmt 0 view .LVU685
	push	{r4, r5, r6, r7, lr}
	.cfi_def_cfa_offset 20
	.cfi_offset 4, -20
	.cfi_offset 5, -16
	.cfi_offset 6, -12
	.cfi_offset 7, -8
	.cfi_offset 14, -4
	mov	lr, r9
	mov	r7, r8
	push	{r7, lr}
	.cfi_def_cfa_offset 28
	.cfi_offset 8, -28
	.cfi_offset 9, -24
	sub	sp, sp, #20
	.cfi_def_cfa_offset 48
	.loc 1 1274 1 view .LVU686
	movs	r4, r0
	movs	r6, r1
	str	r2, [sp, #4]
	.loc 1 1280 4 view .LVU687
	cmp	r0, #0
	bne	.LCB1912
	b	.L264	@long jump
.LCB1912:
	.loc 1 1280 88 is_stmt 1 discriminator 2 view .LVU688
	.loc 1 1284 2 discriminator 2 view .LVU689
	.loc 1 1284 8 is_stmt 0 discriminator 2 view .LVU690
	cmp	r1, #0
	bne	.LCB1916
	b	.L209	@long jump
.LCB1916:
.L212:
	.loc 1 1284 126 is_stmt 1 discriminator 8 view .LVU691
	.loc 1 1297 2 discriminator 8 view .LVU692
	.loc 1 1299 3 discriminator 8 view .LVU693
	bl	vPortEnterCritical
.LVL225:
.LBB68:
	.loc 1 1301 4 discriminator 8 view .LVU694
	.loc 1 1301 22 is_stmt 0 discriminator 8 view .LVU695
	ldr	r5, [r4, #56]
.LVL226:
	.loc 1 1305 4 is_stmt 1 discriminator 8 view .LVU696
	.loc 1 1305 6 is_stmt 0 discriminator 8 view .LVU697
	cmp	r5, #0
	bne	.L210
	.loc 1 1336 5 is_stmt 1 view .LVU698
	.loc 1 1336 7 is_stmt 0 view .LVU699
	ldr	r3, [sp, #4]
	cmp	r3, #0
	beq	.L215
	.loc 1 1344 10 is_stmt 1 view .LVU700
	.loc 1 1348 6 view .LVU701
	add	r0, sp, #8
	bl	vTaskInternalSetTimeOutState
.LVL227:
	.loc 1 1349 6 view .LVU702
	.loc 1 1349 6 is_stmt 0 view .LVU703
.LBE68:
	.loc 1 1364 42 view .LVU704
	movs	r3, #68
	mov	r9, r3
	.loc 1 1364 98 view .LVU705
	movs	r3, #0
	.loc 1 1364 135 view .LVU706
	movs	r7, #69
	.loc 1 1364 98 view .LVU707
	mov	r8, r3
.L222:
.LBB69:
	.loc 1 1354 6 is_stmt 1 view .LVU708
.LBE69:
	.loc 1 1358 3 view .LVU709
	bl	vPortExitCritical
.LVL228:
	.loc 1 1363 3 view .LVU710
	bl	vTaskSuspendAll
.LVL229:
	.loc 1 1364 3 view .LVU711
	bl	vPortEnterCritical
.LVL230:
	.loc 1 1364 27 view .LVU712
	.loc 1 1364 42 is_stmt 0 view .LVU713
	mov	r3, r9
	ldrb	r3, [r4, r3]
	sxtb	r3, r3
	.loc 1 1364 29 view .LVU714
	adds	r3, r3, #1
	bne	.L223
	.loc 1 1364 77 is_stmt 1 discriminator 1 view .LVU715
	.loc 1 1364 98 is_stmt 0 discriminator 1 view .LVU716
	mov	r3, r9
	mov	r2, r8
	strb	r2, [r4, r3]
.L223:
	.loc 1 1364 120 is_stmt 1 discriminator 3 view .LVU717
	.loc 1 1364 135 is_stmt 0 discriminator 3 view .LVU718
	ldrb	r3, [r4, r7]
	sxtb	r3, r3
	.loc 1 1364 122 discriminator 3 view .LVU719
	adds	r3, r3, #1
	bne	.L224
	.loc 1 1364 170 is_stmt 1 discriminator 4 view .LVU720
	.loc 1 1364 191 is_stmt 0 discriminator 4 view .LVU721
	mov	r3, r8
	strb	r3, [r4, r7]
.L224:
	.loc 1 1364 215 is_stmt 1 discriminator 6 view .LVU722
	bl	vPortExitCritical
.LVL231:
	.loc 1 1367 3 discriminator 6 view .LVU723
	.loc 1 1367 7 is_stmt 0 discriminator 6 view .LVU724
	add	r1, sp, #4
	add	r0, sp, #8
	bl	xTaskCheckForTimeOut
.LVL232:
	.loc 1 1367 5 discriminator 6 view .LVU725
	cmp	r0, #0
	bne	.L225
	.loc 1 1371 4 is_stmt 1 view .LVU726
.LVL233:
.LBB70:
.LBI70:
	.loc 1 2287 19 view .LVU727
.LBB71:
	.loc 1 2289 1 view .LVU728
	.loc 1 2291 2 view .LVU729
	bl	vPortEnterCritical
.LVL234:
	.loc 1 2293 3 view .LVU730
	.loc 1 2293 14 is_stmt 0 view .LVU731
	ldr	r3, [r4, #56]
	.loc 1 2293 5 view .LVU732
	cmp	r3, #0
	bne	.L265
.LVL235:
	.loc 1 2302 2 is_stmt 1 view .LVU733
	bl	vPortExitCritical
.LVL236:
	.loc 1 2304 2 view .LVU734
	.loc 1 2304 2 is_stmt 0 view .LVU735
.LBE71:
.LBE70:
	.loc 1 1373 5 is_stmt 1 view .LVU736
	.loc 1 1374 5 view .LVU737
	movs	r0, r4
	ldr	r1, [sp, #4]
	adds	r0, r0, #36
	bl	vTaskPlaceOnEventList
.LVL237:
	.loc 1 1375 5 view .LVU738
	movs	r0, r4
	bl	prvUnlockQueue
.LVL238:
	.loc 1 1376 5 view .LVU739
	.loc 1 1376 9 is_stmt 0 view .LVU740
	bl	xTaskResumeAll
.LVL239:
	.loc 1 1376 7 view .LVU741
	cmp	r0, #0
	bne	.L263
	.loc 1 1378 6 is_stmt 1 view .LVU742
	bl	vPortYield
.LVL240:
	.loc 1 1284 126 view .LVU743
	.loc 1 1297 2 view .LVU744
	.loc 1 1299 3 view .LVU745
	bl	vPortEnterCritical
.LVL241:
.LBB73:
	.loc 1 1301 4 view .LVU746
	.loc 1 1301 22 is_stmt 0 view .LVU747
	ldr	r5, [r4, #56]
.LVL242:
	.loc 1 1305 4 is_stmt 1 view .LVU748
	.loc 1 1305 6 is_stmt 0 view .LVU749
	cmp	r5, #0
	beq	.L254
.LVL243:
.L210:
	.loc 1 1308 5 is_stmt 1 view .LVU750
	movs	r1, r6
	movs	r0, r4
	.loc 1 1310 52 is_stmt 0 view .LVU751
	subs	r5, r5, #1
.LVL244:
	.loc 1 1308 5 view .LVU752
	bl	prvCopyDataFromQueue
.LVL245:
	.loc 1 1309 5 is_stmt 1 view .LVU753
	.loc 1 1310 5 view .LVU754
	.loc 1 1310 32 is_stmt 0 view .LVU755
	str	r5, [r4, #56]
	.loc 1 1315 5 is_stmt 1 view .LVU756
	.loc 1 1315 50 is_stmt 0 view .LVU757
	ldr	r3, [r4, #16]
	.loc 1 1315 7 view .LVU758
	cmp	r3, #0
	bne	.L266
.L218:
	.loc 1 1328 6 is_stmt 1 view .LVU759
	.loc 1 1331 5 view .LVU760
	bl	vPortExitCritical
.LVL246:
	.loc 1 1332 5 view .LVU761
	.loc 1 1332 12 is_stmt 0 view .LVU762
	movs	r0, #1
	b	.L206
.LVL247:
.L225:
	.loc 1 1332 12 view .LVU763
.LBE73:
	.loc 1 1397 4 is_stmt 1 view .LVU764
	movs	r0, r4
	bl	prvUnlockQueue
.LVL248:
	.loc 1 1398 4 view .LVU765
	.loc 1 1398 13 is_stmt 0 view .LVU766
	bl	xTaskResumeAll
.LVL249:
	.loc 1 1400 4 is_stmt 1 view .LVU767
.LBB74:
.LBI74:
	.loc 1 2287 19 view .LVU768
.LBB75:
	.loc 1 2289 1 view .LVU769
	.loc 1 2291 2 view .LVU770
	bl	vPortEnterCritical
.LVL250:
	.loc 1 2293 3 view .LVU771
	.loc 1 2293 14 is_stmt 0 view .LVU772
	ldr	r3, [r4, #56]
	.loc 1 2293 5 view .LVU773
	cmp	r3, #0
	beq	.L215
	.loc 1 2299 4 is_stmt 1 view .LVU774
.LVL251:
	.loc 1 2302 2 view .LVU775
	bl	vPortExitCritical
.LVL252:
.L263:
	.loc 1 2304 2 view .LVU776
	.loc 1 2304 2 is_stmt 0 view .LVU777
.LBE75:
.LBE74:
	.loc 1 1284 126 is_stmt 1 view .LVU778
	.loc 1 1297 2 view .LVU779
	.loc 1 1299 3 view .LVU780
	bl	vPortEnterCritical
.LVL253:
.LBB76:
	.loc 1 1301 4 view .LVU781
	.loc 1 1301 22 is_stmt 0 view .LVU782
	ldr	r5, [r4, #56]
.LVL254:
	.loc 1 1305 4 is_stmt 1 view .LVU783
	.loc 1 1305 6 is_stmt 0 view .LVU784
	cmp	r5, #0
	bne	.L210
.L254:
	.loc 1 1336 5 is_stmt 1 view .LVU785
	.loc 1 1336 7 is_stmt 0 view .LVU786
	ldr	r3, [sp, #4]
	cmp	r3, #0
	bne	.L222
.LVL255:
.L215:
	.loc 1 1340 6 is_stmt 1 view .LVU787
	bl	vPortExitCritical
.LVL256:
	.loc 1 1341 6 view .LVU788
	.loc 1 1342 6 view .LVU789
	.loc 1 1342 13 is_stmt 0 view .LVU790
	movs	r0, #0
.LVL257:
.L206:
	.loc 1 1342 13 view .LVU791
.LBE76:
	.loc 1 1411 1 view .LVU792
	add	sp, sp, #20
	@ sp needed
.LVL258:
.LVL259:
	.loc 1 1411 1 view .LVU793
	pop	{r2, r3}
	mov	r8, r2
	mov	r9, r3
	pop	{r4, r5, r6, r7, pc}
.LVL260:
.L265:
.LBB77:
.LBB72:
	.loc 1 2299 4 is_stmt 1 view .LVU794
	.loc 1 2302 2 view .LVU795
	bl	vPortExitCritical
.LVL261:
	.loc 1 2304 2 view .LVU796
	.loc 1 2304 2 is_stmt 0 view .LVU797
.LBE72:
.LBE77:
	.loc 1 1389 5 is_stmt 1 view .LVU798
	movs	r0, r4
	bl	prvUnlockQueue
.LVL262:
	.loc 1 1390 5 view .LVU799
	.loc 1 1390 14 is_stmt 0 view .LVU800
	bl	xTaskResumeAll
.LVL263:
	.loc 1 1284 126 is_stmt 1 view .LVU801
	.loc 1 1297 2 view .LVU802
	.loc 1 1299 3 view .LVU803
	b	.L263
.LVL264:
.L209:
	.loc 1 1284 8 is_stmt 0 discriminator 2 view .LVU804
	ldr	r3, [r0, #64]
	cmp	r3, #0
	bne	.LCB2202
	b	.L212	@long jump
.LCB2202:
	.loc 1 1284 69 is_stmt 1 view .LVU805
	.syntax divided
@ 1284 "../FreeRTOS/Source/queue.c" 1
	 cpsid i 
@ 0 "" 2
	.thumb
	.syntax unified
.L213:
	.loc 1 1284 114 discriminator 2 view .LVU806
	.loc 1 1284 123 discriminator 2 view .LVU807
	.loc 1 1284 114 discriminator 2 view .LVU808
	.loc 1 1284 123 discriminator 2 view .LVU809
	b	.L213
.L264:
	.loc 1 1280 31 discriminator 1 view .LVU810
	.syntax divided
@ 1280 "../FreeRTOS/Source/queue.c" 1
	 cpsid i 
@ 0 "" 2
	.thumb
	.syntax unified
.L208:
	.loc 1 1280 76 discriminator 1 view .LVU811
	.loc 1 1280 85 discriminator 1 view .LVU812
	.loc 1 1280 76 discriminator 1 view .LVU813
	.loc 1 1280 85 discriminator 1 view .LVU814
	b	.L208
.LVL265:
.L266:
.LBB78:
	.loc 1 1317 6 view .LVU815
	.loc 1 1317 36 is_stmt 0 view .LVU816
	movs	r0, r4
	adds	r0, r0, #16
	.loc 1 1317 10 view .LVU817
	bl	xTaskRemoveFromEventList
.LVL266:
	.loc 1 1317 8 view .LVU818
	cmp	r0, #0
	beq	.L218
	.loc 1 1319 7 is_stmt 1 view .LVU819
	bl	vPortYield
.LVL267:
	b	.L218
.LBE78:
	.cfi_endproc
.LFE6:
	.size	xQueueReceive, .-xQueueReceive
	.section	.text.xQueueSemaphoreTake,"ax",%progbits
	.align	1
	.p2align 2,,3
	.global	xQueueSemaphoreTake
	.syntax unified
	.code	16
	.thumb_func
	.fpu softvfp
	.type	xQueueSemaphoreTake, %function
xQueueSemaphoreTake:
.LVL268:
.LFB7:
	.loc 1 1415 1 view -0
	.cfi_startproc
	@ args = 0, pretend = 0, frame = 16
	@ frame_needed = 0, uses_anonymous_args = 0
	.loc 1 1416 1 view .LVU821
	.loc 1 1417 1 view .LVU822
	.loc 1 1418 1 view .LVU823
	.loc 1 1425 2 view .LVU824
	.loc 1 1415 1 is_stmt 0 view .LVU825
	push	{r4, r5, r6, r7, lr}
	.cfi_def_cfa_offset 20
	.cfi_offset 4, -20
	.cfi_offset 5, -16
	.cfi_offset 6, -12
	.cfi_offset 7, -8
	.cfi_offset 14, -4
	sub	sp, sp, #20
	.cfi_def_cfa_offset 40
	.loc 1 1415 1 view .LVU826
	subs	r4, r0, #0
	str	r1, [sp, #4]
	.loc 1 1425 4 view .LVU827
	bne	.LCB2272
	b	.L322	@long jump
.LCB2272:
	.loc 1 1425 88 is_stmt 1 discriminator 2 view .LVU828
	.loc 1 1429 2 discriminator 2 view .LVU829
	.loc 1 1429 4 is_stmt 0 discriminator 2 view .LVU830
	ldr	r3, [r0, #64]
	cmp	r3, #0
	bne	.L323
	.loc 1 1429 101 is_stmt 1 discriminator 2 view .LVU831
	.loc 1 1442 2 discriminator 2 view .LVU832
	.loc 1 1444 3 discriminator 2 view .LVU833
	bl	vPortEnterCritical
.LVL269:
.LBB79:
	.loc 1 1448 4 discriminator 2 view .LVU834
	.loc 1 1448 22 is_stmt 0 discriminator 2 view .LVU835
	ldr	r3, [r4, #56]
.LVL270:
	.loc 1 1452 4 is_stmt 1 discriminator 2 view .LVU836
	.loc 1 1452 6 is_stmt 0 discriminator 2 view .LVU837
	cmp	r3, #0
	bne	.L274
	.loc 1 1498 5 is_stmt 1 view .LVU838
	.loc 1 1498 7 is_stmt 0 view .LVU839
	ldr	r3, [sp, #4]
.LVL271:
	.loc 1 1498 7 view .LVU840
	cmp	r3, #0
	beq	.L273
	.loc 1 1515 10 is_stmt 1 view .LVU841
	.loc 1 1519 6 view .LVU842
	add	r0, sp, #8
	bl	vTaskInternalSetTimeOutState
.LVL272:
	.loc 1 1520 6 view .LVU843
	.loc 1 1520 6 is_stmt 0 view .LVU844
.LBE79:
	.loc 1 1535 42 view .LVU845
	movs	r7, #68
	.loc 1 1535 98 view .LVU846
	movs	r6, #0
	.loc 1 1535 135 view .LVU847
	movs	r5, #69
.L282:
.LBB80:
	.loc 1 1525 6 is_stmt 1 view .LVU848
.LBE80:
	.loc 1 1529 3 view .LVU849
	bl	vPortExitCritical
.LVL273:
	.loc 1 1534 3 view .LVU850
	bl	vTaskSuspendAll
.LVL274:
	.loc 1 1535 3 view .LVU851
	bl	vPortEnterCritical
.LVL275:
	.loc 1 1535 27 view .LVU852
	.loc 1 1535 42 is_stmt 0 view .LVU853
	ldrb	r3, [r4, r7]
	sxtb	r3, r3
	.loc 1 1535 29 view .LVU854
	adds	r3, r3, #1
	bne	.L283
	.loc 1 1535 77 is_stmt 1 discriminator 1 view .LVU855
	.loc 1 1535 98 is_stmt 0 discriminator 1 view .LVU856
	strb	r6, [r4, r7]
.L283:
	.loc 1 1535 120 is_stmt 1 discriminator 3 view .LVU857
	.loc 1 1535 135 is_stmt 0 discriminator 3 view .LVU858
	ldrb	r3, [r4, r5]
	sxtb	r3, r3
	.loc 1 1535 122 discriminator 3 view .LVU859
	adds	r3, r3, #1
	bne	.L284
	.loc 1 1535 170 is_stmt 1 discriminator 4 view .LVU860
	.loc 1 1535 191 is_stmt 0 discriminator 4 view .LVU861
	strb	r6, [r4, r5]
.L284:
	.loc 1 1535 215 is_stmt 1 discriminator 6 view .LVU862
	bl	vPortExitCritical
.LVL276:
	.loc 1 1538 3 discriminator 6 view .LVU863
	.loc 1 1538 7 is_stmt 0 discriminator 6 view .LVU864
	add	r1, sp, #4
	add	r0, sp, #8
	bl	xTaskCheckForTimeOut
.LVL277:
	.loc 1 1538 5 discriminator 6 view .LVU865
	cmp	r0, #0
	bne	.L285
	.loc 1 1544 4 is_stmt 1 view .LVU866
.LVL278:
.LBB81:
.LBI81:
	.loc 1 2287 19 view .LVU867
.LBB82:
	.loc 1 2289 1 view .LVU868
	.loc 1 2291 2 view .LVU869
	bl	vPortEnterCritical
.LVL279:
	.loc 1 2293 3 view .LVU870
	.loc 1 2293 14 is_stmt 0 view .LVU871
	ldr	r3, [r4, #56]
	.loc 1 2293 5 view .LVU872
	cmp	r3, #0
	bne	.L286
.LVL280:
	.loc 1 2302 2 is_stmt 1 view .LVU873
	bl	vPortExitCritical
.LVL281:
	.loc 1 2304 2 view .LVU874
	.loc 1 2304 2 is_stmt 0 view .LVU875
.LBE82:
.LBE81:
	.loc 1 1546 5 is_stmt 1 view .LVU876
	.loc 1 1565 5 view .LVU877
	movs	r0, r4
	ldr	r1, [sp, #4]
	adds	r0, r0, #36
	bl	vTaskPlaceOnEventList
.LVL282:
	.loc 1 1566 5 view .LVU878
	movs	r0, r4
	bl	prvUnlockQueue
.LVL283:
	.loc 1 1567 5 view .LVU879
	.loc 1 1567 9 is_stmt 0 view .LVU880
	bl	xTaskResumeAll
.LVL284:
	.loc 1 1567 7 view .LVU881
	cmp	r0, #0
	beq	.L324
.L321:
.LBB84:
.LBB85:
	.loc 1 2304 2 is_stmt 1 view .LVU882
	.loc 1 2304 2 is_stmt 0 view .LVU883
.LBE85:
.LBE84:
	.loc 1 1429 101 is_stmt 1 view .LVU884
	.loc 1 1442 2 view .LVU885
	.loc 1 1444 3 view .LVU886
	bl	vPortEnterCritical
.LVL285:
.LBB87:
	.loc 1 1448 4 view .LVU887
	.loc 1 1448 22 is_stmt 0 view .LVU888
	ldr	r3, [r4, #56]
.LVL286:
	.loc 1 1452 4 is_stmt 1 view .LVU889
	.loc 1 1452 6 is_stmt 0 view .LVU890
	cmp	r3, #0
	bne	.L274
.L314:
	.loc 1 1498 5 is_stmt 1 view .LVU891
	.loc 1 1498 7 is_stmt 0 view .LVU892
	ldr	r3, [sp, #4]
.LVL287:
	.loc 1 1498 7 view .LVU893
	cmp	r3, #0
	bne	.L282
.LVL288:
.L273:
	.loc 1 1511 6 is_stmt 1 view .LVU894
	bl	vPortExitCritical
.LVL289:
	.loc 1 1512 6 view .LVU895
	.loc 1 1513 6 view .LVU896
	.loc 1 1513 13 is_stmt 0 view .LVU897
	movs	r0, #0
.L267:
.LBE87:
	.loc 1 1629 1 view .LVU898
	add	sp, sp, #20
	@ sp needed
.LVL290:
	.loc 1 1629 1 view .LVU899
	pop	{r4, r5, r6, r7, pc}
.LVL291:
.L323:
	.loc 1 1429 44 is_stmt 1 discriminator 1 view .LVU900
	.syntax divided
@ 1429 "../FreeRTOS/Source/queue.c" 1
	 cpsid i 
@ 0 "" 2
	.thumb
	.syntax unified
.L271:
	.loc 1 1429 89 discriminator 2 view .LVU901
	.loc 1 1429 98 discriminator 2 view .LVU902
	.loc 1 1429 89 discriminator 2 view .LVU903
	.loc 1 1429 98 discriminator 2 view .LVU904
	b	.L271
.LVL292:
.L285:
	.loc 1 1587 4 view .LVU905
	movs	r0, r4
	bl	prvUnlockQueue
.LVL293:
	.loc 1 1588 4 view .LVU906
	.loc 1 1588 13 is_stmt 0 view .LVU907
	bl	xTaskResumeAll
.LVL294:
	.loc 1 1594 4 is_stmt 1 view .LVU908
.LBB88:
.LBI84:
	.loc 1 2287 19 view .LVU909
.LBB86:
	.loc 1 2289 1 view .LVU910
	.loc 1 2291 2 view .LVU911
	bl	vPortEnterCritical
.LVL295:
	.loc 1 2293 3 view .LVU912
	.loc 1 2293 14 is_stmt 0 view .LVU913
	ldr	r3, [r4, #56]
	.loc 1 2293 5 view .LVU914
	cmp	r3, #0
	beq	.L273
	.loc 1 2299 4 is_stmt 1 view .LVU915
.LVL296:
	.loc 1 2302 2 view .LVU916
	bl	vPortExitCritical
.LVL297:
	b	.L321
.LVL298:
.L286:
	.loc 1 2302 2 is_stmt 0 view .LVU917
.LBE86:
.LBE88:
.LBB89:
.LBB83:
	.loc 1 2299 4 is_stmt 1 view .LVU918
	.loc 1 2302 2 view .LVU919
	bl	vPortExitCritical
.LVL299:
	.loc 1 2304 2 view .LVU920
	.loc 1 2304 2 is_stmt 0 view .LVU921
.LBE83:
.LBE89:
	.loc 1 1580 5 is_stmt 1 view .LVU922
	movs	r0, r4
	bl	prvUnlockQueue
.LVL300:
	.loc 1 1581 5 view .LVU923
	.loc 1 1581 14 is_stmt 0 view .LVU924
	bl	xTaskResumeAll
.LVL301:
	.loc 1 1429 101 is_stmt 1 view .LVU925
	.loc 1 1442 2 view .LVU926
	.loc 1 1444 3 view .LVU927
	bl	vPortEnterCritical
.LVL302:
.LBB90:
	.loc 1 1448 4 view .LVU928
	.loc 1 1448 22 is_stmt 0 view .LVU929
	ldr	r3, [r4, #56]
.LVL303:
	.loc 1 1452 4 is_stmt 1 view .LVU930
	.loc 1 1452 6 is_stmt 0 view .LVU931
	cmp	r3, #0
	beq	.L314
.LVL304:
.L274:
	.loc 1 1454 5 is_stmt 1 view .LVU932
	.loc 1 1458 5 view .LVU933
	.loc 1 1458 51 is_stmt 0 view .LVU934
	subs	r3, r3, #1
.LVL305:
	.loc 1 1458 32 view .LVU935
	str	r3, [r4, #56]
	.loc 1 1477 5 is_stmt 1 view .LVU936
	.loc 1 1477 50 is_stmt 0 view .LVU937
	ldr	r3, [r4, #16]
.LVL306:
	.loc 1 1477 7 view .LVU938
	cmp	r3, #0
	bne	.L325
.LVL307:
.L278:
	.loc 1 1490 6 is_stmt 1 view .LVU939
	.loc 1 1493 5 view .LVU940
	bl	vPortExitCritical
.LVL308:
	.loc 1 1494 5 view .LVU941
	.loc 1 1494 12 is_stmt 0 view .LVU942
	movs	r0, #1
	b	.L267
.LVL309:
.L322:
	.loc 1 1494 12 view .LVU943
.LBE90:
	.loc 1 1425 31 is_stmt 1 discriminator 1 view .LVU944
	.syntax divided
@ 1425 "../FreeRTOS/Source/queue.c" 1
	 cpsid i 
@ 0 "" 2
	.thumb
	.syntax unified
.L269:
	.loc 1 1425 76 discriminator 1 view .LVU945
	.loc 1 1425 85 discriminator 1 view .LVU946
	.loc 1 1425 76 discriminator 1 view .LVU947
	.loc 1 1425 85 discriminator 1 view .LVU948
	b	.L269
.LVL310:
.L324:
	.loc 1 1569 6 view .LVU949
	bl	vPortYield
.LVL311:
	.loc 1 1429 101 view .LVU950
	.loc 1 1442 2 view .LVU951
	.loc 1 1444 3 view .LVU952
	b	.L321
.LVL312:
.L325:
.LBB91:
	.loc 1 1479 6 view .LVU953
	.loc 1 1479 36 is_stmt 0 view .LVU954
	movs	r0, r4
	adds	r0, r0, #16
	.loc 1 1479 10 view .LVU955
	bl	xTaskRemoveFromEventList
.LVL313:
	.loc 1 1479 8 view .LVU956
	cmp	r0, #0
	beq	.L278
	.loc 1 1481 7 is_stmt 1 view .LVU957
	bl	vPortYield
.LVL314:
	b	.L278
.LBE91:
	.cfi_endproc
.LFE7:
	.size	xQueueSemaphoreTake, .-xQueueSemaphoreTake
	.section	.text.xQueuePeek,"ax",%progbits
	.align	1
	.p2align 2,,3
	.global	xQueuePeek
	.syntax unified
	.code	16
	.thumb_func
	.fpu softvfp
	.type	xQueuePeek, %function
xQueuePeek:
.LVL315:
.LFB8:
	.loc 1 1633 1 view -0
	.cfi_startproc
	@ args = 0, pretend = 0, frame = 16
	@ frame_needed = 0, uses_anonymous_args = 0
	.loc 1 1634 1 view .LVU959
	.loc 1 1635 1 view .LVU960
	.loc 1 1636 1 view .LVU961
	.loc 1 1637 1 view .LVU962
	.loc 1 1640 2 view .LVU963
	.loc 1 1633 1 is_stmt 0 view .LVU964
	push	{r4, r5, r6, r7, lr}
	.cfi_def_cfa_offset 20
	.cfi_offset 4, -20
	.cfi_offset 5, -16
	.cfi_offset 6, -12
	.cfi_offset 7, -8
	.cfi_offset 14, -4
	mov	lr, r8
	push	{lr}
	.cfi_def_cfa_offset 24
	.cfi_offset 8, -24
	sub	sp, sp, #16
	.cfi_def_cfa_offset 40
	.loc 1 1633 1 view .LVU965
	movs	r4, r0
	movs	r5, r1
	str	r2, [sp, #4]
	.loc 1 1640 4 view .LVU966
	cmp	r0, #0
	beq	.L386
	.loc 1 1640 88 is_stmt 1 discriminator 2 view .LVU967
	.loc 1 1644 2 discriminator 2 view .LVU968
	.loc 1 1644 8 is_stmt 0 discriminator 2 view .LVU969
	cmp	r1, #0
	beq	.L329
.L332:
	.loc 1 1644 126 is_stmt 1 discriminator 8 view .LVU970
	.loc 1 1657 2 discriminator 8 view .LVU971
	.loc 1 1659 3 discriminator 8 view .LVU972
	bl	vPortEnterCritical
.LVL316:
.LBB92:
	.loc 1 1661 4 discriminator 8 view .LVU973
	.loc 1 1661 22 is_stmt 0 discriminator 8 view .LVU974
	ldr	r3, [r4, #56]
.LVL317:
	.loc 1 1665 4 is_stmt 1 discriminator 8 view .LVU975
	.loc 1 1665 6 is_stmt 0 discriminator 8 view .LVU976
	cmp	r3, #0
	bne	.L330
	.loc 1 1702 5 is_stmt 1 view .LVU977
	.loc 1 1702 7 is_stmt 0 view .LVU978
	ldr	r3, [sp, #4]
.LVL318:
	.loc 1 1702 7 view .LVU979
	cmp	r3, #0
	beq	.L335
	.loc 1 1710 10 is_stmt 1 view .LVU980
	.loc 1 1715 6 view .LVU981
	add	r0, sp, #8
	bl	vTaskInternalSetTimeOutState
.LVL319:
	.loc 1 1716 6 view .LVU982
	.loc 1 1716 6 is_stmt 0 view .LVU983
.LBE92:
	.loc 1 1731 42 view .LVU984
	movs	r3, #68
	.loc 1 1731 98 view .LVU985
	movs	r7, #0
	.loc 1 1731 42 view .LVU986
	mov	r8, r3
	.loc 1 1731 135 view .LVU987
	movs	r6, #69
.L342:
.LBB93:
	.loc 1 1721 6 is_stmt 1 view .LVU988
.LBE93:
	.loc 1 1725 3 view .LVU989
	bl	vPortExitCritical
.LVL320:
	.loc 1 1730 3 view .LVU990
	bl	vTaskSuspendAll
.LVL321:
	.loc 1 1731 3 view .LVU991
	bl	vPortEnterCritical
.LVL322:
	.loc 1 1731 27 view .LVU992
	.loc 1 1731 42 is_stmt 0 view .LVU993
	mov	r3, r8
	ldrb	r3, [r4, r3]
	sxtb	r3, r3
	.loc 1 1731 29 view .LVU994
	adds	r3, r3, #1
	bne	.L343
	.loc 1 1731 77 is_stmt 1 discriminator 1 view .LVU995
	.loc 1 1731 98 is_stmt 0 discriminator 1 view .LVU996
	mov	r3, r8
	strb	r7, [r4, r3]
.L343:
	.loc 1 1731 120 is_stmt 1 discriminator 3 view .LVU997
	.loc 1 1731 135 is_stmt 0 discriminator 3 view .LVU998
	ldrb	r3, [r4, r6]
	sxtb	r3, r3
	.loc 1 1731 122 discriminator 3 view .LVU999
	adds	r3, r3, #1
	bne	.L344
	.loc 1 1731 170 is_stmt 1 discriminator 4 view .LVU1000
	.loc 1 1731 191 is_stmt 0 discriminator 4 view .LVU1001
	strb	r7, [r4, r6]
.L344:
	.loc 1 1731 215 is_stmt 1 discriminator 6 view .LVU1002
	bl	vPortExitCritical
.LVL323:
	.loc 1 1734 3 discriminator 6 view .LVU1003
	.loc 1 1734 7 is_stmt 0 discriminator 6 view .LVU1004
	add	r1, sp, #4
	add	r0, sp, #8
	bl	xTaskCheckForTimeOut
.LVL324:
	.loc 1 1734 5 discriminator 6 view .LVU1005
	cmp	r0, #0
	bne	.L345
	.loc 1 1738 4 is_stmt 1 view .LVU1006
.LVL325:
.LBB94:
.LBI94:
	.loc 1 2287 19 view .LVU1007
.LBB95:
	.loc 1 2289 1 view .LVU1008
	.loc 1 2291 2 view .LVU1009
	bl	vPortEnterCritical
.LVL326:
	.loc 1 2293 3 view .LVU1010
	.loc 1 2293 14 is_stmt 0 view .LVU1011
	ldr	r3, [r4, #56]
	.loc 1 2293 5 view .LVU1012
	cmp	r3, #0
	bne	.L387
.LVL327:
	.loc 1 2302 2 is_stmt 1 view .LVU1013
	bl	vPortExitCritical
.LVL328:
	.loc 1 2304 2 view .LVU1014
	.loc 1 2304 2 is_stmt 0 view .LVU1015
.LBE95:
.LBE94:
	.loc 1 1740 5 is_stmt 1 view .LVU1016
	.loc 1 1741 5 view .LVU1017
	movs	r0, r4
	ldr	r1, [sp, #4]
	adds	r0, r0, #36
	bl	vTaskPlaceOnEventList
.LVL329:
	.loc 1 1742 5 view .LVU1018
	movs	r0, r4
	bl	prvUnlockQueue
.LVL330:
	.loc 1 1743 5 view .LVU1019
	.loc 1 1743 9 is_stmt 0 view .LVU1020
	bl	xTaskResumeAll
.LVL331:
	.loc 1 1743 7 view .LVU1021
	cmp	r0, #0
	bne	.L385
	.loc 1 1745 6 is_stmt 1 view .LVU1022
	bl	vPortYield
.LVL332:
	.loc 1 1644 126 view .LVU1023
	.loc 1 1657 2 view .LVU1024
	.loc 1 1659 3 view .LVU1025
	b	.L385
.L345:
	.loc 1 1764 4 view .LVU1026
	movs	r0, r4
	bl	prvUnlockQueue
.LVL333:
	.loc 1 1765 4 view .LVU1027
	.loc 1 1765 13 is_stmt 0 view .LVU1028
	bl	xTaskResumeAll
.LVL334:
	.loc 1 1767 4 is_stmt 1 view .LVU1029
.LBB97:
.LBI97:
	.loc 1 2287 19 view .LVU1030
.LBB98:
	.loc 1 2289 1 view .LVU1031
	.loc 1 2291 2 view .LVU1032
	bl	vPortEnterCritical
.LVL335:
	.loc 1 2293 3 view .LVU1033
	.loc 1 2293 14 is_stmt 0 view .LVU1034
	ldr	r3, [r4, #56]
	.loc 1 2293 5 view .LVU1035
	cmp	r3, #0
	beq	.L335
	.loc 1 2299 4 is_stmt 1 view .LVU1036
.LVL336:
	.loc 1 2302 2 view .LVU1037
	bl	vPortExitCritical
.LVL337:
.L385:
	.loc 1 2304 2 view .LVU1038
	.loc 1 2304 2 is_stmt 0 view .LVU1039
.LBE98:
.LBE97:
	.loc 1 1644 126 is_stmt 1 view .LVU1040
	.loc 1 1657 2 view .LVU1041
	.loc 1 1659 3 view .LVU1042
	bl	vPortEnterCritical
.LVL338:
.LBB99:
	.loc 1 1661 4 view .LVU1043
	.loc 1 1661 22 is_stmt 0 view .LVU1044
	ldr	r3, [r4, #56]
.LVL339:
	.loc 1 1665 4 is_stmt 1 view .LVU1045
	.loc 1 1665 6 is_stmt 0 view .LVU1046
	cmp	r3, #0
	bne	.L330
	.loc 1 1702 5 is_stmt 1 view .LVU1047
	.loc 1 1702 7 is_stmt 0 view .LVU1048
	ldr	r3, [sp, #4]
.LVL340:
	.loc 1 1702 7 view .LVU1049
	cmp	r3, #0
	bne	.L342
.LVL341:
.L335:
	.loc 1 1706 6 is_stmt 1 view .LVU1050
	bl	vPortExitCritical
.LVL342:
	.loc 1 1707 6 view .LVU1051
	.loc 1 1708 6 view .LVU1052
	.loc 1 1708 13 is_stmt 0 view .LVU1053
	movs	r0, #0
.L326:
.LBE99:
	.loc 1 1778 1 view .LVU1054
	add	sp, sp, #16
	@ sp needed
.LVL343:
.LVL344:
	.loc 1 1778 1 view .LVU1055
	pop	{r2}
	mov	r8, r2
	pop	{r4, r5, r6, r7, pc}
.LVL345:
.L387:
.LBB100:
.LBB96:
	.loc 1 2299 4 is_stmt 1 view .LVU1056
	.loc 1 2302 2 view .LVU1057
	bl	vPortExitCritical
.LVL346:
	.loc 1 2304 2 view .LVU1058
	.loc 1 2304 2 is_stmt 0 view .LVU1059
.LBE96:
.LBE100:
	.loc 1 1756 5 is_stmt 1 view .LVU1060
	movs	r0, r4
	bl	prvUnlockQueue
.LVL347:
	.loc 1 1757 5 view .LVU1061
	.loc 1 1757 14 is_stmt 0 view .LVU1062
	bl	xTaskResumeAll
.LVL348:
	.loc 1 1644 126 is_stmt 1 view .LVU1063
	.loc 1 1657 2 view .LVU1064
	.loc 1 1659 3 view .LVU1065
	b	.L385
.LVL349:
.L329:
	.loc 1 1644 8 is_stmt 0 discriminator 2 view .LVU1066
	ldr	r3, [r0, #64]
	cmp	r3, #0
	beq	.L332
	.loc 1 1644 69 is_stmt 1 view .LVU1067
	.syntax divided
@ 1644 "../FreeRTOS/Source/queue.c" 1
	 cpsid i 
@ 0 "" 2
	.thumb
	.syntax unified
.L333:
	.loc 1 1644 114 discriminator 2 view .LVU1068
	.loc 1 1644 123 discriminator 2 view .LVU1069
	.loc 1 1644 114 discriminator 2 view .LVU1070
	.loc 1 1644 123 discriminator 2 view .LVU1071
	b	.L333
.L386:
	.loc 1 1640 31 discriminator 1 view .LVU1072
	.syntax divided
@ 1640 "../FreeRTOS/Source/queue.c" 1
	 cpsid i 
@ 0 "" 2
	.thumb
	.syntax unified
.L328:
	.loc 1 1640 76 discriminator 1 view .LVU1073
	.loc 1 1640 85 discriminator 1 view .LVU1074
	.loc 1 1640 76 discriminator 1 view .LVU1075
	.loc 1 1640 85 discriminator 1 view .LVU1076
	b	.L328
.LVL350:
.L330:
.LBB101:
	.loc 1 1670 5 view .LVU1077
	.loc 1 1672 5 is_stmt 0 view .LVU1078
	movs	r1, r5
	movs	r0, r4
	.loc 1 1670 28 view .LVU1079
	ldr	r6, [r4, #12]
.LVL351:
	.loc 1 1672 5 is_stmt 1 view .LVU1080
	bl	prvCopyDataFromQueue
.LVL352:
	.loc 1 1673 5 view .LVU1081
	.loc 1 1676 5 view .LVU1082
	.loc 1 1680 53 is_stmt 0 view .LVU1083
	ldr	r3, [r4, #36]
	.loc 1 1676 34 view .LVU1084
	str	r6, [r4, #12]
	.loc 1 1680 5 is_stmt 1 view .LVU1085
	.loc 1 1680 7 is_stmt 0 view .LVU1086
	cmp	r3, #0
	bne	.L388
.L338:
	.loc 1 1694 6 is_stmt 1 view .LVU1087
	.loc 1 1697 5 view .LVU1088
	bl	vPortExitCritical
.LVL353:
	.loc 1 1698 5 view .LVU1089
	.loc 1 1698 12 is_stmt 0 view .LVU1090
	movs	r0, #1
	b	.L326
.L388:
	.loc 1 1682 6 is_stmt 1 view .LVU1091
	.loc 1 1682 36 is_stmt 0 view .LVU1092
	movs	r0, r4
	adds	r0, r0, #36
	.loc 1 1682 10 view .LVU1093
	bl	xTaskRemoveFromEventList
.LVL354:
	.loc 1 1682 8 view .LVU1094
	cmp	r0, #0
	beq	.L338
	.loc 1 1685 7 is_stmt 1 view .LVU1095
	bl	vPortYield
.LVL355:
	b	.L338
.LBE101:
	.cfi_endproc
.LFE8:
	.size	xQueuePeek, .-xQueuePeek
	.section	.text.xQueueReceiveFromISR,"ax",%progbits
	.align	1
	.p2align 2,,3
	.global	xQueueReceiveFromISR
	.syntax unified
	.code	16
	.thumb_func
	.fpu softvfp
	.type	xQueueReceiveFromISR, %function
xQueueReceiveFromISR:
.LVL356:
.LFB9:
	.loc 1 1782 1 view -0
	.cfi_startproc
	@ args = 0, pretend = 0, frame = 0
	@ frame_needed = 0, uses_anonymous_args = 0
	.loc 1 1783 1 view .LVU1097
	.loc 1 1784 1 view .LVU1098
	.loc 1 1785 1 view .LVU1099
	.loc 1 1787 2 view .LVU1100
	.loc 1 1782 1 is_stmt 0 view .LVU1101
	push	{r4, lr}
	.cfi_def_cfa_offset 8
	.cfi_offset 4, -8
	.cfi_offset 14, -4
	.loc 1 1787 4 view .LVU1102
	cmp	r0, #0
	beq	.L397
	.loc 1 1787 84 is_stmt 1 discriminator 2 view .LVU1103
	.loc 1 1788 2 discriminator 2 view .LVU1104
	.loc 1 1788 8 is_stmt 0 discriminator 2 view .LVU1105
	cmp	r1, #0
	beq	.L398
.L392:
	bl	xQueueReceiveFromISR.part.3
.LVL357:
	.loc 1 1869 1 discriminator 8 view .LVU1106
	@ sp needed
	pop	{r4, pc}
.LVL358:
.L398:
	.loc 1 1788 8 discriminator 2 view .LVU1107
	ldr	r3, [r0, #64]
	cmp	r3, #0
	beq	.L392
	.loc 1 1788 65 is_stmt 1 view .LVU1108
	.syntax divided
@ 1788 "../FreeRTOS/Source/queue.c" 1
	 cpsid i 
@ 0 "" 2
	.thumb
	.syntax unified
.L393:
	.loc 1 1788 110 discriminator 2 view .LVU1109
	.loc 1 1788 119 discriminator 2 view .LVU1110
	.loc 1 1788 110 discriminator 2 view .LVU1111
	.loc 1 1788 119 discriminator 2 view .LVU1112
	b	.L393
.L397:
	.loc 1 1787 27 discriminator 1 view .LVU1113
	.syntax divided
@ 1787 "../FreeRTOS/Source/queue.c" 1
	 cpsid i 
@ 0 "" 2
	.thumb
	.syntax unified
.L391:
	.loc 1 1787 72 discriminator 1 view .LVU1114
	.loc 1 1787 81 discriminator 1 view .LVU1115
	.loc 1 1787 72 discriminator 1 view .LVU1116
	.loc 1 1787 81 discriminator 1 view .LVU1117
	b	.L391
	.cfi_endproc
.LFE9:
	.size	xQueueReceiveFromISR, .-xQueueReceiveFromISR
	.section	.text.xQueuePeekFromISR,"ax",%progbits
	.align	1
	.p2align 2,,3
	.global	xQueuePeekFromISR
	.syntax unified
	.code	16
	.thumb_func
	.fpu softvfp
	.type	xQueuePeekFromISR, %function
xQueuePeekFromISR:
.LVL359:
.LFB10:
	.loc 1 1873 1 view -0
	.cfi_startproc
	@ args = 0, pretend = 0, frame = 0
	@ frame_needed = 0, uses_anonymous_args = 0
	.loc 1 1874 1 view .LVU1119
	.loc 1 1875 1 view .LVU1120
	.loc 1 1876 1 view .LVU1121
	.loc 1 1877 1 view .LVU1122
	.loc 1 1879 2 view .LVU1123
	.loc 1 1873 1 is_stmt 0 view .LVU1124
	push	{r3, r4, r5, r6, r7, lr}
	.cfi_def_cfa_offset 24
	.cfi_offset 3, -24
	.cfi_offset 4, -20
	.cfi_offset 5, -16
	.cfi_offset 6, -12
	.cfi_offset 7, -8
	.cfi_offset 14, -4
	.loc 1 1873 1 view .LVU1125
	movs	r4, r0
	movs	r6, r1
	.loc 1 1879 4 view .LVU1126
	cmp	r0, #0
	beq	.L413
	.loc 1 1879 84 is_stmt 1 discriminator 2 view .LVU1127
	.loc 1 1880 2 discriminator 2 view .LVU1128
	ldr	r3, [r0, #64]
	.loc 1 1880 8 is_stmt 0 discriminator 2 view .LVU1129
	cmp	r1, #0
	beq	.L414
	.loc 1 1880 122 is_stmt 1 discriminator 8 view .LVU1130
	.loc 1 1881 2 discriminator 8 view .LVU1131
	.loc 1 1881 4 is_stmt 0 discriminator 8 view .LVU1132
	cmp	r3, #0
	bne	.L405
.L403:
	.loc 1 1881 44 is_stmt 1 discriminator 1 view .LVU1133
	.syntax divided
@ 1881 "../FreeRTOS/Source/queue.c" 1
	 cpsid i 
@ 0 "" 2
	.thumb
	.syntax unified
.L406:
	.loc 1 1881 89 discriminator 3 view .LVU1134
	.loc 1 1881 98 discriminator 3 view .LVU1135
	.loc 1 1881 89 discriminator 3 view .LVU1136
	.loc 1 1881 98 discriminator 3 view .LVU1137
	b	.L406
.L414:
	.loc 1 1880 8 is_stmt 0 discriminator 2 view .LVU1138
	cmp	r3, #0
	beq	.L403
	.loc 1 1880 65 is_stmt 1 view .LVU1139
	.syntax divided
@ 1880 "../FreeRTOS/Source/queue.c" 1
	 cpsid i 
@ 0 "" 2
	.thumb
	.syntax unified
.L404:
	.loc 1 1880 110 discriminator 2 view .LVU1140
	.loc 1 1880 119 discriminator 2 view .LVU1141
	.loc 1 1880 110 discriminator 2 view .LVU1142
	.loc 1 1880 119 discriminator 2 view .LVU1143
	b	.L404
.L413:
	.loc 1 1879 27 discriminator 1 view .LVU1144
	.syntax divided
@ 1879 "../FreeRTOS/Source/queue.c" 1
	 cpsid i 
@ 0 "" 2
	.thumb
	.syntax unified
.L401:
	.loc 1 1879 72 discriminator 1 view .LVU1145
	.loc 1 1879 81 discriminator 1 view .LVU1146
	.loc 1 1879 72 discriminator 1 view .LVU1147
	.loc 1 1879 81 discriminator 1 view .LVU1148
	b	.L401
.L405:
	.loc 1 1881 101 discriminator 2 view .LVU1149
	.loc 1 1897 2 discriminator 2 view .LVU1150
	.loc 1 1899 2 discriminator 2 view .LVU1151
	.loc 1 1899 27 is_stmt 0 discriminator 2 view .LVU1152
	bl	ulSetInterruptMaskFromISR
.LVL360:
	.loc 1 1902 14 discriminator 2 view .LVU1153
	ldr	r3, [r4, #56]
	.loc 1 1899 27 discriminator 2 view .LVU1154
	movs	r7, r0
.LVL361:
	.loc 1 1902 3 is_stmt 1 discriminator 2 view .LVU1155
	.loc 1 1916 12 is_stmt 0 discriminator 2 view .LVU1156
	movs	r5, #0
	.loc 1 1902 5 discriminator 2 view .LVU1157
	cmp	r3, #0
	bne	.L415
.LVL362:
.L407:
	.loc 1 1917 4 is_stmt 1 view .LVU1158
	.loc 1 1920 2 view .LVU1159
	movs	r0, r7
	bl	vClearInterruptMaskFromISR
.LVL363:
	.loc 1 1922 2 view .LVU1160
	.loc 1 1923 1 is_stmt 0 view .LVU1161
	@ sp needed
	movs	r0, r5
.LVL364:
.LVL365:
.LVL366:
.LVL367:
	.loc 1 1923 1 view .LVU1162
	pop	{r3, r4, r5, r6, r7, pc}
.LVL368:
.L415:
	.loc 1 1904 4 is_stmt 1 view .LVU1163
	.loc 1 1908 4 view .LVU1164
	.loc 1 1908 27 is_stmt 0 view .LVU1165
	ldr	r5, [r4, #12]
.LVL369:
	.loc 1 1909 4 is_stmt 1 view .LVU1166
	movs	r1, r6
	movs	r0, r4
.LVL370:
	.loc 1 1909 4 is_stmt 0 view .LVU1167
	bl	prvCopyDataFromQueue
.LVL371:
	.loc 1 1910 4 is_stmt 1 view .LVU1168
	.loc 1 1910 33 is_stmt 0 view .LVU1169
	str	r5, [r4, #12]
	.loc 1 1912 4 is_stmt 1 view .LVU1170
.LVL372:
	.loc 1 1912 12 is_stmt 0 view .LVU1171
	movs	r5, #1
.LVL373:
	.loc 1 1912 12 view .LVU1172
	b	.L407
	.cfi_endproc
.LFE10:
	.size	xQueuePeekFromISR, .-xQueuePeekFromISR
	.section	.text.uxQueueMessagesWaiting,"ax",%progbits
	.align	1
	.p2align 2,,3
	.global	uxQueueMessagesWaiting
	.syntax unified
	.code	16
	.thumb_func
	.fpu softvfp
	.type	uxQueueMessagesWaiting, %function
uxQueueMessagesWaiting:
.LVL374:
.LFB11:
	.loc 1 1927 1 is_stmt 1 view -0
	.cfi_startproc
	@ args = 0, pretend = 0, frame = 0
	@ frame_needed = 0, uses_anonymous_args = 0
	.loc 1 1928 1 view .LVU1174
	.loc 1 1930 2 view .LVU1175
	.loc 1 1927 1 is_stmt 0 view .LVU1176
	push	{r4, lr}
	.cfi_def_cfa_offset 8
	.cfi_offset 4, -8
	.cfi_offset 14, -4
	.loc 1 1927 1 view .LVU1177
	subs	r4, r0, #0
	.loc 1 1930 4 view .LVU1178
	beq	.L419
	.loc 1 1930 83 is_stmt 1 discriminator 2 view .LVU1179
	.loc 1 1932 2 discriminator 2 view .LVU1180
	bl	vPortEnterCritical
.LVL375:
	.loc 1 1934 3 discriminator 2 view .LVU1181
	.loc 1 1934 12 is_stmt 0 discriminator 2 view .LVU1182
	ldr	r4, [r4, #56]
.LVL376:
	.loc 1 1936 2 is_stmt 1 discriminator 2 view .LVU1183
	.loc 1 1939 1 is_stmt 0 discriminator 2 view .LVU1184
	@ sp needed
	.loc 1 1936 2 discriminator 2 view .LVU1185
	bl	vPortExitCritical
.LVL377:
	.loc 1 1938 2 is_stmt 1 discriminator 2 view .LVU1186
	.loc 1 1939 1 is_stmt 0 discriminator 2 view .LVU1187
	movs	r0, r4
.LVL378:
	.loc 1 1939 1 discriminator 2 view .LVU1188
	pop	{r4, pc}
.LVL379:
.L419:
	.loc 1 1930 26 is_stmt 1 discriminator 1 view .LVU1189
	.syntax divided
@ 1930 "../FreeRTOS/Source/queue.c" 1
	 cpsid i 
@ 0 "" 2
	.thumb
	.syntax unified
.L418:
	.loc 1 1930 71 discriminator 1 view .LVU1190
	.loc 1 1930 80 discriminator 1 view .LVU1191
	.loc 1 1930 71 discriminator 1 view .LVU1192
	.loc 1 1930 80 discriminator 1 view .LVU1193
	b	.L418
	.cfi_endproc
.LFE11:
	.size	uxQueueMessagesWaiting, .-uxQueueMessagesWaiting
	.section	.text.uxQueueSpacesAvailable,"ax",%progbits
	.align	1
	.p2align 2,,3
	.global	uxQueueSpacesAvailable
	.syntax unified
	.code	16
	.thumb_func
	.fpu softvfp
	.type	uxQueueSpacesAvailable, %function
uxQueueSpacesAvailable:
.LVL380:
.LFB12:
	.loc 1 1943 1 view -0
	.cfi_startproc
	@ args = 0, pretend = 0, frame = 0
	@ frame_needed = 0, uses_anonymous_args = 0
	.loc 1 1944 1 view .LVU1195
	.loc 1 1945 1 view .LVU1196
	.loc 1 1947 2 view .LVU1197
	.loc 1 1943 1 is_stmt 0 view .LVU1198
	push	{r4, r5, r6, lr}
	.cfi_def_cfa_offset 16
	.cfi_offset 4, -16
	.cfi_offset 5, -12
	.cfi_offset 6, -8
	.cfi_offset 14, -4
	.loc 1 1943 1 view .LVU1199
	subs	r5, r0, #0
	.loc 1 1947 4 view .LVU1200
	beq	.L423
	.loc 1 1947 84 is_stmt 1 discriminator 2 view .LVU1201
	.loc 1 1949 2 discriminator 2 view .LVU1202
	bl	vPortEnterCritical
.LVL381:
	.loc 1 1951 3 discriminator 2 view .LVU1203
	.loc 1 1951 41 is_stmt 0 discriminator 2 view .LVU1204
	ldr	r3, [r5, #56]
	.loc 1 1951 12 discriminator 2 view .LVU1205
	ldr	r4, [r5, #60]
	.loc 1 1956 1 discriminator 2 view .LVU1206
	@ sp needed
	.loc 1 1951 12 discriminator 2 view .LVU1207
	subs	r4, r4, r3
.LVL382:
	.loc 1 1953 2 is_stmt 1 discriminator 2 view .LVU1208
	bl	vPortExitCritical
.LVL383:
	.loc 1 1955 2 discriminator 2 view .LVU1209
	.loc 1 1956 1 is_stmt 0 discriminator 2 view .LVU1210
	movs	r0, r4
.LVL384:
.LVL385:
	.loc 1 1956 1 discriminator 2 view .LVU1211
	pop	{r4, r5, r6, pc}
.LVL386:
.L423:
	.loc 1 1947 27 is_stmt 1 discriminator 1 view .LVU1212
	.syntax divided
@ 1947 "../FreeRTOS/Source/queue.c" 1
	 cpsid i 
@ 0 "" 2
	.thumb
	.syntax unified
.L422:
	.loc 1 1947 72 discriminator 1 view .LVU1213
	.loc 1 1947 81 discriminator 1 view .LVU1214
	.loc 1 1947 72 discriminator 1 view .LVU1215
	.loc 1 1947 81 discriminator 1 view .LVU1216
	b	.L422
	.cfi_endproc
.LFE12:
	.size	uxQueueSpacesAvailable, .-uxQueueSpacesAvailable
	.section	.text.uxQueueMessagesWaitingFromISR,"ax",%progbits
	.align	1
	.p2align 2,,3
	.global	uxQueueMessagesWaitingFromISR
	.syntax unified
	.code	16
	.thumb_func
	.fpu softvfp
	.type	uxQueueMessagesWaitingFromISR, %function
uxQueueMessagesWaitingFromISR:
.LVL387:
.LFB13:
	.loc 1 1960 1 view -0
	.cfi_startproc
	@ args = 0, pretend = 0, frame = 0
	@ frame_needed = 0, uses_anonymous_args = 0
	@ link register save eliminated.
	.loc 1 1961 1 view .LVU1218
	.loc 1 1962 1 view .LVU1219
	.loc 1 1964 2 view .LVU1220
	.loc 1 1964 4 is_stmt 0 view .LVU1221
	cmp	r0, #0
	beq	.L427
	.loc 1 1964 84 is_stmt 1 discriminator 2 view .LVU1222
	.loc 1 1965 2 discriminator 2 view .LVU1223
	.loc 1 1965 11 is_stmt 0 discriminator 2 view .LVU1224
	ldr	r0, [r0, #56]
.LVL388:
	.loc 1 1967 2 is_stmt 1 discriminator 2 view .LVU1225
	.loc 1 1968 1 is_stmt 0 discriminator 2 view .LVU1226
	@ sp needed
	bx	lr
.LVL389:
.L427:
	.loc 1 1964 27 is_stmt 1 discriminator 1 view .LVU1227
	.syntax divided
@ 1964 "../FreeRTOS/Source/queue.c" 1
	 cpsid i 
@ 0 "" 2
	.thumb
	.syntax unified
.L426:
	.loc 1 1964 72 discriminator 1 view .LVU1228
	.loc 1 1964 81 discriminator 1 view .LVU1229
	.loc 1 1964 72 discriminator 1 view .LVU1230
	.loc 1 1964 81 discriminator 1 view .LVU1231
	b	.L426
	.cfi_endproc
.LFE13:
	.size	uxQueueMessagesWaitingFromISR, .-uxQueueMessagesWaitingFromISR
	.section	.text.vQueueDelete,"ax",%progbits
	.align	1
	.p2align 2,,3
	.global	vQueueDelete
	.syntax unified
	.code	16
	.thumb_func
	.fpu softvfp
	.type	vQueueDelete, %function
vQueueDelete:
.LVL390:
.LFB14:
	.loc 1 1972 1 view -0
	.cfi_startproc
	@ args = 0, pretend = 0, frame = 0
	@ frame_needed = 0, uses_anonymous_args = 0
	.loc 1 1973 1 view .LVU1233
	.loc 1 1975 2 view .LVU1234
	.loc 1 1972 1 is_stmt 0 view .LVU1235
	push	{r4, lr}
	.cfi_def_cfa_offset 8
	.cfi_offset 4, -8
	.cfi_offset 14, -4
	.loc 1 1975 4 view .LVU1236
	cmp	r0, #0
	beq	.L435
	ldr	r2, .L437
.LBB102:
.LBB103:
	.loc 1 2707 11 view .LVU1237
	movs	r3, #0
	movs	r1, r2
.L433:
.LVL391:
	.loc 1 2709 4 is_stmt 1 view .LVU1238
	.loc 1 2709 6 is_stmt 0 view .LVU1239
	ldr	r4, [r1, #4]
	cmp	r0, r4
	beq	.L436
	.loc 1 2722 5 is_stmt 1 view .LVU1240
	.loc 1 2707 59 is_stmt 0 view .LVU1241
	adds	r3, r3, #1
.LVL392:
	.loc 1 2707 59 view .LVU1242
	adds	r1, r1, #8
	.loc 1 2707 3 view .LVU1243
	cmp	r3, #8
	bne	.L433
.LVL393:
.L432:
	.loc 1 2707 3 view .LVU1244
.LBE103:
.LBE102:
	.loc 1 1988 3 is_stmt 1 discriminator 2 view .LVU1245
	bl	vPortFree
.LVL394:
	.loc 1 2010 1 is_stmt 0 discriminator 2 view .LVU1246
	@ sp needed
	pop	{r4, pc}
.LVL395:
.L435:
	.loc 1 1975 27 is_stmt 1 discriminator 1 view .LVU1247
	.syntax divided
@ 1975 "../FreeRTOS/Source/queue.c" 1
	 cpsid i 
@ 0 "" 2
	.thumb
	.syntax unified
.L430:
	.loc 1 1975 72 discriminator 1 view .LVU1248
	.loc 1 1975 81 discriminator 1 view .LVU1249
	.loc 1 1975 72 discriminator 1 view .LVU1250
	.loc 1 1975 81 discriminator 1 view .LVU1251
	b	.L430
.LVL396:
.L436:
.LBB105:
.LBB104:
	.loc 1 2712 5 view .LVU1252
	.loc 1 2712 38 is_stmt 0 view .LVU1253
	movs	r1, #0
	lsls	r3, r3, #3
.LVL397:
	.loc 1 2712 38 view .LVU1254
	str	r1, [r2, r3]
	.loc 1 2717 5 is_stmt 1 view .LVU1255
	.loc 1 2717 34 is_stmt 0 view .LVU1256
	adds	r3, r2, r3
	str	r1, [r3, #4]
	.loc 1 2718 5 is_stmt 1 view .LVU1257
	b	.L432
.L438:
	.align	2
.L437:
	.word	.LANCHOR0
.LBE104:
.LBE105:
	.cfi_endproc
.LFE14:
	.size	vQueueDelete, .-vQueueDelete
	.section	.text.xQueueIsQueueEmptyFromISR,"ax",%progbits
	.align	1
	.p2align 2,,3
	.global	xQueueIsQueueEmptyFromISR
	.syntax unified
	.code	16
	.thumb_func
	.fpu softvfp
	.type	xQueueIsQueueEmptyFromISR, %function
xQueueIsQueueEmptyFromISR:
.LVL398:
.LFB19:
	.loc 1 2309 1 view -0
	.cfi_startproc
	@ args = 0, pretend = 0, frame = 0
	@ frame_needed = 0, uses_anonymous_args = 0
	@ link register save eliminated.
	.loc 1 2310 1 view .LVU1259
	.loc 1 2311 1 view .LVU1260
	.loc 1 2313 2 view .LVU1261
	.loc 1 2313 4 is_stmt 0 view .LVU1262
	cmp	r0, #0
	beq	.L442
	.loc 1 2313 84 is_stmt 1 discriminator 2 view .LVU1263
	.loc 1 2314 2 discriminator 2 view .LVU1264
	.loc 1 2314 13 is_stmt 0 discriminator 2 view .LVU1265
	ldr	r0, [r0, #56]
.LVL399:
	.loc 1 2323 2 is_stmt 1 discriminator 2 view .LVU1266
	.loc 1 2324 1 is_stmt 0 discriminator 2 view .LVU1267
	@ sp needed
	.loc 1 2314 4 discriminator 2 view .LVU1268
	rsbs	r3, r0, #0
	adcs	r0, r0, r3
.LVL400:
	.loc 1 2324 1 discriminator 2 view .LVU1269
	bx	lr
.LVL401:
.L442:
	.loc 1 2313 27 is_stmt 1 discriminator 1 view .LVU1270
	.syntax divided
@ 2313 "../FreeRTOS/Source/queue.c" 1
	 cpsid i 
@ 0 "" 2
	.thumb
	.syntax unified
.L441:
	.loc 1 2313 72 discriminator 1 view .LVU1271
	.loc 1 2313 81 discriminator 1 view .LVU1272
	.loc 1 2313 72 discriminator 1 view .LVU1273
	.loc 1 2313 81 discriminator 1 view .LVU1274
	b	.L441
	.cfi_endproc
.LFE19:
	.size	xQueueIsQueueEmptyFromISR, .-xQueueIsQueueEmptyFromISR
	.section	.text.xQueueIsQueueFullFromISR,"ax",%progbits
	.align	1
	.p2align 2,,3
	.global	xQueueIsQueueFullFromISR
	.syntax unified
	.code	16
	.thumb_func
	.fpu softvfp
	.type	xQueueIsQueueFullFromISR, %function
xQueueIsQueueFullFromISR:
.LVL402:
.LFB21:
	.loc 1 2349 1 view -0
	.cfi_startproc
	@ args = 0, pretend = 0, frame = 0
	@ frame_needed = 0, uses_anonymous_args = 0
	@ link register save eliminated.
	.loc 1 2350 1 view .LVU1276
	.loc 1 2351 1 view .LVU1277
	.loc 1 2353 2 view .LVU1278
	.loc 1 2353 4 is_stmt 0 view .LVU1279
	cmp	r0, #0
	beq	.L446
	.loc 1 2353 84 is_stmt 1 discriminator 2 view .LVU1280
	.loc 1 2354 2 discriminator 2 view .LVU1281
	.loc 1 2354 13 is_stmt 0 discriminator 2 view .LVU1282
	ldr	r3, [r0, #56]
.LVL403:
	.loc 1 2363 2 is_stmt 1 discriminator 2 view .LVU1283
	.loc 1 2354 4 is_stmt 0 discriminator 2 view .LVU1284
	ldr	r0, [r0, #60]
.LVL404:
	.loc 1 2364 1 discriminator 2 view .LVU1285
	@ sp needed
	.loc 1 2354 4 discriminator 2 view .LVU1286
	subs	r0, r0, r3
.LVL405:
	.loc 1 2354 4 discriminator 2 view .LVU1287
	rsbs	r3, r0, #0
	adcs	r0, r0, r3
.LVL406:
	.loc 1 2364 1 discriminator 2 view .LVU1288
	bx	lr
.LVL407:
.L446:
	.loc 1 2353 27 is_stmt 1 discriminator 1 view .LVU1289
	.syntax divided
@ 2353 "../FreeRTOS/Source/queue.c" 1
	 cpsid i 
@ 0 "" 2
	.thumb
	.syntax unified
.L445:
	.loc 1 2353 72 discriminator 1 view .LVU1290
	.loc 1 2353 81 discriminator 1 view .LVU1291
	.loc 1 2353 72 discriminator 1 view .LVU1292
	.loc 1 2353 81 discriminator 1 view .LVU1293
	b	.L445
	.cfi_endproc
.LFE21:
	.size	xQueueIsQueueFullFromISR, .-xQueueIsQueueFullFromISR
	.section	.text.vQueueAddToRegistry,"ax",%progbits
	.align	1
	.p2align 2,,3
	.global	vQueueAddToRegistry
	.syntax unified
	.code	16
	.thumb_func
	.fpu softvfp
	.type	vQueueAddToRegistry, %function
vQueueAddToRegistry:
.LVL408:
.LFB22:
	.loc 1 2645 2 view -0
	.cfi_startproc
	@ args = 0, pretend = 0, frame = 0
	@ frame_needed = 0, uses_anonymous_args = 0
	.loc 1 2646 2 view .LVU1295
	.loc 1 2650 3 view .LVU1296
	.loc 1 2645 2 is_stmt 0 view .LVU1297
	push	{r4, r5, lr}
	.cfi_def_cfa_offset 12
	.cfi_offset 4, -12
	.cfi_offset 5, -8
	.cfi_offset 14, -4
	ldr	r4, .L453
	.loc 1 2650 11 view .LVU1298
	movs	r3, #0
	movs	r2, r4
.LVL409:
.L450:
	.loc 1 2652 4 is_stmt 1 view .LVU1299
	.loc 1 2652 6 is_stmt 0 view .LVU1300
	ldr	r5, [r2]
	cmp	r5, #0
	beq	.L452
	.loc 1 2663 5 is_stmt 1 discriminator 2 view .LVU1301
	.loc 1 2650 59 is_stmt 0 discriminator 2 view .LVU1302
	adds	r3, r3, #1
.LVL410:
	.loc 1 2650 59 discriminator 2 view .LVU1303
	adds	r2, r2, #8
	.loc 1 2650 3 discriminator 2 view .LVU1304
	cmp	r3, #8
	bne	.L450
.LVL411:
.L447:
	.loc 1 2666 2 view .LVU1305
	@ sp needed
	pop	{r4, r5, pc}
.LVL412:
.L452:
	.loc 1 2655 5 is_stmt 1 view .LVU1306
	.loc 1 2655 38 is_stmt 0 view .LVU1307
	lsls	r3, r3, #3
.LVL413:
	.loc 1 2655 38 view .LVU1308
	str	r1, [r4, r3]
	.loc 1 2656 5 is_stmt 1 view .LVU1309
	.loc 1 2656 34 is_stmt 0 view .LVU1310
	adds	r3, r4, r3
	str	r0, [r3, #4]
	.loc 1 2658 5 is_stmt 1 view .LVU1311
	.loc 1 2659 5 view .LVU1312
	b	.L447
.L454:
	.align	2
.L453:
	.word	.LANCHOR0
	.cfi_endproc
.LFE22:
	.size	vQueueAddToRegistry, .-vQueueAddToRegistry
	.section	.text.pcQueueGetName,"ax",%progbits
	.align	1
	.p2align 2,,3
	.global	pcQueueGetName
	.syntax unified
	.code	16
	.thumb_func
	.fpu softvfp
	.type	pcQueueGetName, %function
pcQueueGetName:
.LVL414:
.LFB23:
	.loc 1 2674 2 view -0
	.cfi_startproc
	@ args = 0, pretend = 0, frame = 0
	@ frame_needed = 0, uses_anonymous_args = 0
	.loc 1 2675 2 view .LVU1314
	.loc 1 2676 2 view .LVU1315
	.loc 1 2680 3 view .LVU1316
	.loc 1 2680 3 is_stmt 0 view .LVU1317
	ldr	r1, .L461
	.loc 1 2680 11 view .LVU1318
	movs	r3, #0
	movs	r2, r1
	.loc 1 2674 2 view .LVU1319
	push	{r4, lr}
	.cfi_def_cfa_offset 8
	.cfi_offset 4, -8
	.cfi_offset 14, -4
.LVL415:
.L458:
	.loc 1 2682 4 is_stmt 1 view .LVU1320
	.loc 1 2682 6 is_stmt 0 view .LVU1321
	ldr	r4, [r2, #4]
	cmp	r4, r0
	beq	.L460
	.loc 1 2689 5 is_stmt 1 discriminator 2 view .LVU1322
	.loc 1 2680 59 is_stmt 0 discriminator 2 view .LVU1323
	adds	r3, r3, #1
.LVL416:
	.loc 1 2680 59 discriminator 2 view .LVU1324
	adds	r2, r2, #8
	.loc 1 2680 3 discriminator 2 view .LVU1325
	cmp	r3, #8
	bne	.L458
	.loc 1 2676 14 view .LVU1326
	movs	r0, #0
.LVL417:
	.loc 1 2693 3 is_stmt 1 view .LVU1327
.L455:
	.loc 1 2694 2 is_stmt 0 view .LVU1328
	@ sp needed
	pop	{r4, pc}
.LVL418:
.L460:
	.loc 1 2684 5 is_stmt 1 view .LVU1329
	.loc 1 2684 14 is_stmt 0 view .LVU1330
	lsls	r3, r3, #3
.LVL419:
	.loc 1 2684 14 view .LVU1331
	ldr	r0, [r1, r3]
.LVL420:
	.loc 1 2685 5 is_stmt 1 view .LVU1332
	b	.L455
.L462:
	.align	2
.L461:
	.word	.LANCHOR0
	.cfi_endproc
.LFE23:
	.size	pcQueueGetName, .-pcQueueGetName
	.section	.text.vQueueUnregisterQueue,"ax",%progbits
	.align	1
	.p2align 2,,3
	.global	vQueueUnregisterQueue
	.syntax unified
	.code	16
	.thumb_func
	.fpu softvfp
	.type	vQueueUnregisterQueue, %function
vQueueUnregisterQueue:
.LVL421:
.LFB24:
	.loc 1 2702 2 view -0
	.cfi_startproc
	@ args = 0, pretend = 0, frame = 0
	@ frame_needed = 0, uses_anonymous_args = 0
	.loc 1 2703 2 view .LVU1334
	.loc 1 2707 3 view .LVU1335
	.loc 1 2707 3 is_stmt 0 view .LVU1336
	ldr	r1, .L469
	.loc 1 2707 11 view .LVU1337
	movs	r3, #0
	movs	r2, r1
	.loc 1 2702 2 view .LVU1338
	push	{r4, lr}
	.cfi_def_cfa_offset 8
	.cfi_offset 4, -8
	.cfi_offset 14, -4
.LVL422:
.L466:
	.loc 1 2709 4 is_stmt 1 view .LVU1339
	.loc 1 2709 6 is_stmt 0 view .LVU1340
	ldr	r4, [r2, #4]
	cmp	r4, r0
	beq	.L468
	.loc 1 2722 5 is_stmt 1 discriminator 2 view .LVU1341
	.loc 1 2707 59 is_stmt 0 discriminator 2 view .LVU1342
	adds	r3, r3, #1
.LVL423:
	.loc 1 2707 59 discriminator 2 view .LVU1343
	adds	r2, r2, #8
	.loc 1 2707 3 discriminator 2 view .LVU1344
	cmp	r3, #8
	bne	.L466
.LVL424:
.L463:
	.loc 1 2726 2 view .LVU1345
	@ sp needed
	pop	{r4, pc}
.LVL425:
.L468:
	.loc 1 2712 5 is_stmt 1 view .LVU1346
	.loc 1 2712 38 is_stmt 0 view .LVU1347
	movs	r2, #0
	lsls	r3, r3, #3
.LVL426:
	.loc 1 2712 38 view .LVU1348
	str	r2, [r1, r3]
	.loc 1 2717 5 is_stmt 1 view .LVU1349
	.loc 1 2717 34 is_stmt 0 view .LVU1350
	adds	r3, r1, r3
	str	r2, [r3, #4]
	.loc 1 2718 5 is_stmt 1 view .LVU1351
	b	.L463
.L470:
	.align	2
.L469:
	.word	.LANCHOR0
	.cfi_endproc
.LFE24:
	.size	vQueueUnregisterQueue, .-vQueueUnregisterQueue
	.section	.text.xQueueCreateSet,"ax",%progbits
	.align	1
	.p2align 2,,3
	.global	xQueueCreateSet
	.syntax unified
	.code	16
	.thumb_func
	.fpu softvfp
	.type	xQueueCreateSet, %function
xQueueCreateSet:
.LVL427:
.LFB25:
	.loc 1 2770 2 view -0
	.cfi_startproc
	@ args = 0, pretend = 0, frame = 0
	@ frame_needed = 0, uses_anonymous_args = 0
	.loc 1 2771 2 view .LVU1353
	.loc 1 2773 3 view .LVU1354
.LBB106:
.LBI106:
	.loc 1 368 16 view .LVU1355
.LBB107:
	.loc 1 370 2 view .LVU1356
	.loc 1 371 2 view .LVU1357
	.loc 1 372 2 view .LVU1358
	.loc 1 374 3 view .LVU1359
.LBE107:
.LBE106:
	.loc 1 2770 2 is_stmt 0 view .LVU1360
	push	{r4, lr}
	.cfi_def_cfa_offset 8
	.cfi_offset 4, -8
	.cfi_offset 14, -4
.LBB109:
.LBB108:
	.loc 1 374 5 view .LVU1361
	cmp	r0, #0
	bne	.L472
	.loc 1 374 54 is_stmt 1 view .LVU1362
	.syntax divided
@ 374 "../FreeRTOS/Source/queue.c" 1
	 cpsid i 
@ 0 "" 2
	.thumb
	.syntax unified
.L473:
	.loc 1 374 99 view .LVU1363
	.loc 1 374 108 view .LVU1364
	.loc 1 374 99 view .LVU1365
	.loc 1 374 108 view .LVU1366
	b	.L473
.L472:
	movs	r1, #4
	bl	xQueueGenericCreate.part.2
.LVL428:
	.loc 1 419 4 view .LVU1367
	.loc 1 420 4 view .LVU1368
	.loc 1 423 3 view .LVU1369
	.loc 1 423 3 is_stmt 0 view .LVU1370
.LBE108:
.LBE109:
	.loc 1 2775 3 is_stmt 1 view .LVU1371
	.loc 1 2776 2 is_stmt 0 view .LVU1372
	@ sp needed
	pop	{r4, pc}
	.cfi_endproc
.LFE25:
	.size	xQueueCreateSet, .-xQueueCreateSet
	.section	.text.xQueueAddToSet,"ax",%progbits
	.align	1
	.p2align 2,,3
	.global	xQueueAddToSet
	.syntax unified
	.code	16
	.thumb_func
	.fpu softvfp
	.type	xQueueAddToSet, %function
xQueueAddToSet:
.LVL429:
.LFB26:
	.loc 1 2784 2 is_stmt 1 view -0
	.cfi_startproc
	@ args = 0, pretend = 0, frame = 0
	@ frame_needed = 0, uses_anonymous_args = 0
	.loc 1 2785 2 view .LVU1374
	.loc 1 2787 3 view .LVU1375
	.loc 1 2784 2 is_stmt 0 view .LVU1376
	push	{r4, r5, r6, lr}
	.cfi_def_cfa_offset 16
	.cfi_offset 4, -16
	.cfi_offset 5, -12
	.cfi_offset 6, -8
	.cfi_offset 14, -4
	.loc 1 2784 2 view .LVU1377
	movs	r4, r0
	movs	r6, r1
	.loc 1 2787 3 view .LVU1378
	bl	vPortEnterCritical
.LVL430:
	.loc 1 2789 4 is_stmt 1 view .LVU1379
	.loc 1 2789 6 is_stmt 0 view .LVU1380
	ldr	r3, [r4, #72]
	.loc 1 2792 13 view .LVU1381
	movs	r5, #0
	.loc 1 2789 6 view .LVU1382
	cmp	r3, #0
	beq	.L478
.L475:
.LVL431:
	.loc 1 2806 3 is_stmt 1 view .LVU1383
	bl	vPortExitCritical
.LVL432:
	.loc 1 2808 3 view .LVU1384
	.loc 1 2809 2 is_stmt 0 view .LVU1385
	@ sp needed
	movs	r0, r5
.LVL433:
.LVL434:
.LVL435:
	.loc 1 2809 2 view .LVU1386
	pop	{r4, r5, r6, pc}
.LVL436:
.L478:
	.loc 1 2794 9 is_stmt 1 view .LVU1387
	.loc 1 2794 48 is_stmt 0 view .LVU1388
	ldr	r3, [r4, #56]
	.loc 1 2794 11 view .LVU1389
	cmp	r3, #0
	bne	.L475
	.loc 1 2802 5 is_stmt 1 view .LVU1390
	.loc 1 2802 62 is_stmt 0 view .LVU1391
	str	r6, [r4, #72]
	.loc 1 2803 5 is_stmt 1 view .LVU1392
.LVL437:
	.loc 1 2803 13 is_stmt 0 view .LVU1393
	adds	r5, r5, #1
	b	.L475
	.cfi_endproc
.LFE26:
	.size	xQueueAddToSet, .-xQueueAddToSet
	.section	.text.xQueueRemoveFromSet,"ax",%progbits
	.align	1
	.p2align 2,,3
	.global	xQueueRemoveFromSet
	.syntax unified
	.code	16
	.thumb_func
	.fpu softvfp
	.type	xQueueRemoveFromSet, %function
xQueueRemoveFromSet:
.LVL438:
.LFB27:
	.loc 1 2817 2 is_stmt 1 view -0
	.cfi_startproc
	@ args = 0, pretend = 0, frame = 0
	@ frame_needed = 0, uses_anonymous_args = 0
	.loc 1 2818 2 view .LVU1395
	.loc 1 2819 2 view .LVU1396
	.loc 1 2821 3 view .LVU1397
	.loc 1 2821 5 is_stmt 0 view .LVU1398
	ldr	r3, [r0, #72]
	.loc 1 2817 2 view .LVU1399
	push	{r4, r5, r6, lr}
	.cfi_def_cfa_offset 16
	.cfi_offset 4, -16
	.cfi_offset 5, -12
	.cfi_offset 6, -8
	.cfi_offset 14, -4
	.loc 1 2817 2 view .LVU1400
	movs	r4, r0
	.loc 1 2824 12 view .LVU1401
	movs	r5, #0
	.loc 1 2821 5 view .LVU1402
	cmp	r3, r1
	beq	.L483
.LVL439:
.L479:
	.loc 1 2845 2 view .LVU1403
	movs	r0, r5
	@ sp needed
.LVL440:
	.loc 1 2845 2 view .LVU1404
	pop	{r4, r5, r6, pc}
.LVL441:
.L483:
	.loc 1 2826 8 is_stmt 1 view .LVU1405
	.loc 1 2826 30 is_stmt 0 view .LVU1406
	ldr	r3, [r0, #56]
	.loc 1 2826 10 view .LVU1407
	cmp	r3, #0
	bne	.L479
	.loc 1 2835 4 is_stmt 1 view .LVU1408
	bl	vPortEnterCritical
.LVL442:
	.loc 1 2838 5 view .LVU1409
	.loc 1 2838 45 is_stmt 0 view .LVU1410
	str	r5, [r4, #72]
	.loc 1 2840 4 is_stmt 1 view .LVU1411
	bl	vPortExitCritical
.LVL443:
	.loc 1 2841 4 view .LVU1412
	.loc 1 2841 12 is_stmt 0 view .LVU1413
	adds	r5, r5, #1
	b	.L479
	.cfi_endproc
.LFE27:
	.size	xQueueRemoveFromSet, .-xQueueRemoveFromSet
	.section	.text.xQueueSelectFromSet,"ax",%progbits
	.align	1
	.p2align 2,,3
	.global	xQueueSelectFromSet
	.syntax unified
	.code	16
	.thumb_func
	.fpu softvfp
	.type	xQueueSelectFromSet, %function
xQueueSelectFromSet:
.LVL444:
.LFB28:
	.loc 1 2853 2 is_stmt 1 view -0
	.cfi_startproc
	@ args = 0, pretend = 0, frame = 8
	@ frame_needed = 0, uses_anonymous_args = 0
	.loc 1 2854 2 view .LVU1415
	.loc 1 2854 25 is_stmt 0 view .LVU1416
	movs	r3, #0
	.loc 1 2853 2 view .LVU1417
	push	{lr}
	.cfi_def_cfa_offset 4
	.cfi_offset 14, -4
	sub	sp, sp, #12
	.cfi_def_cfa_offset 16
	.loc 1 2853 2 view .LVU1418
	movs	r2, r1
	.loc 1 2856 12 view .LVU1419
	add	r1, sp, #4
.LVL445:
	.loc 1 2854 25 view .LVU1420
	str	r3, [sp, #4]
	.loc 1 2856 3 is_stmt 1 view .LVU1421
	.loc 1 2856 12 is_stmt 0 view .LVU1422
	bl	xQueueReceive
.LVL446:
	.loc 1 2857 3 is_stmt 1 view .LVU1423
	.loc 1 2858 2 is_stmt 0 view .LVU1424
	ldr	r0, [sp, #4]
	add	sp, sp, #12
	@ sp needed
	pop	{pc}
	.cfi_endproc
.LFE28:
	.size	xQueueSelectFromSet, .-xQueueSelectFromSet
	.section	.text.xQueueSelectFromSetFromISR,"ax",%progbits
	.align	1
	.p2align 2,,3
	.global	xQueueSelectFromSetFromISR
	.syntax unified
	.code	16
	.thumb_func
	.fpu softvfp
	.type	xQueueSelectFromSetFromISR, %function
xQueueSelectFromSetFromISR:
.LVL447:
.LFB29:
	.loc 1 2866 2 is_stmt 1 view -0
	.cfi_startproc
	@ args = 0, pretend = 0, frame = 8
	@ frame_needed = 0, uses_anonymous_args = 0
	.loc 1 2867 2 view .LVU1426
	.loc 1 2867 25 is_stmt 0 view .LVU1427
	movs	r3, #0
	.loc 1 2866 2 view .LVU1428
	push	{lr}
	.cfi_def_cfa_offset 4
	.cfi_offset 14, -4
	sub	sp, sp, #12
	.cfi_def_cfa_offset 16
	.loc 1 2867 25 view .LVU1429
	str	r3, [sp, #4]
	.loc 1 2869 3 is_stmt 1 view .LVU1430
.LVL448:
.LBB110:
.LBI110:
	.loc 1 1781 12 view .LVU1431
.LBB111:
	.loc 1 1783 1 view .LVU1432
	.loc 1 1784 1 view .LVU1433
	.loc 1 1785 1 view .LVU1434
	.loc 1 1787 2 view .LVU1435
	.loc 1 1787 4 is_stmt 0 view .LVU1436
	cmp	r0, #0
	beq	.L488
	.loc 1 1787 84 is_stmt 1 view .LVU1437
	.loc 1 1788 2 view .LVU1438
	movs	r2, #0
	add	r1, sp, #4
.LVL449:
	.loc 1 1788 2 is_stmt 0 view .LVU1439
	bl	xQueueReceiveFromISR.part.3
.LVL450:
	.loc 1 1788 2 view .LVU1440
.LBE111:
.LBE110:
	.loc 1 2870 3 is_stmt 1 view .LVU1441
	.loc 1 2871 2 is_stmt 0 view .LVU1442
	ldr	r0, [sp, #4]
	add	sp, sp, #12
	@ sp needed
	pop	{pc}
.LVL451:
.L488:
.LBB113:
.LBB112:
	.loc 1 1787 27 is_stmt 1 view .LVU1443
	.syntax divided
@ 1787 "../FreeRTOS/Source/queue.c" 1
	 cpsid i 
@ 0 "" 2
	.thumb
	.syntax unified
.L487:
	.loc 1 1787 72 view .LVU1444
	.loc 1 1787 81 view .LVU1445
	.loc 1 1787 72 view .LVU1446
	.loc 1 1787 81 view .LVU1447
	b	.L487
.LBE112:
.LBE113:
	.cfi_endproc
.LFE29:
	.size	xQueueSelectFromSetFromISR, .-xQueueSelectFromSetFromISR
	.global	xQueueRegistry
	.section	.bss.xQueueRegistry,"aw",%nobits
	.align	2
	.set	.LANCHOR0,. + 0
	.type	xQueueRegistry, %object
	.size	xQueueRegistry, 64
xQueueRegistry:
	.space	64
	.text
.Letext0:
	.file 2 "/home/a.malinowsk2/Programs/gcc-arm-none-eabi-8-2018-q4-major/lib/gcc/arm-none-eabi/8.2.1/include/stddef.h"
	.file 3 "/home/a.malinowsk2/Programs/gcc-arm-none-eabi-8-2018-q4-major/arm-none-eabi/include/machine/_default_types.h"
	.file 4 "/home/a.malinowsk2/Programs/gcc-arm-none-eabi-8-2018-q4-major/arm-none-eabi/include/sys/lock.h"
	.file 5 "/home/a.malinowsk2/Programs/gcc-arm-none-eabi-8-2018-q4-major/arm-none-eabi/include/sys/_types.h"
	.file 6 "/home/a.malinowsk2/Programs/gcc-arm-none-eabi-8-2018-q4-major/arm-none-eabi/include/sys/reent.h"
	.file 7 "/home/a.malinowsk2/Programs/gcc-arm-none-eabi-8-2018-q4-major/arm-none-eabi/include/sys/_stdint.h"
	.file 8 "../FreeRTOS/Source/portable/GCC/ARM_CM0/portmacro.h"
	.file 9 "../FreeRTOS/Source/include/list.h"
	.file 10 "../FreeRTOS/Source/include/task.h"
	.file 11 "../FreeRTOS/Source/include/queue.h"
	.file 12 "../FreeRTOS/Source/include/portable.h"
	.file 13 "<built-in>"