	.cpu cortex-m0
	.eabi_attribute 20, 1
	.eabi_attribute 21, 1
	.eabi_attribute 23, 3
	.eabi_attribute 24, 1
	.eabi_attribute 25, 1
	.eabi_attribute 26, 1
	.eabi_attribute 30, 2
	.eabi_attribute 34, 0
	.eabi_attribute 18, 4
	.file	"state.c"
	.text
.Ltext0:
	.cfi_sections	.debug_frame
	.section	.text.state_setup,"ax",%progbits
	.align	1
	.p2align 2,,3
	.global	state_setup
	.arch armv6s-m
	.syntax unified
	.code	16
	.thumb_func
	.fpu softvfp
	.type	state_setup, %function
state_setup:
.LFB0:
	.file 1 "state.c"
	.loc 1 34 24 view -0
	.cfi_startproc
	@ args = 0, pretend = 0, frame = 0
	@ frame_needed = 0, uses_anonymous_args = 0
	.loc 1 35 5 view .LVU1
	.loc 1 34 24 is_stmt 0 view .LVU2
	push	{r4, lr}
	.cfi_def_cfa_offset 8
	.cfi_offset 4, -8
	.cfi_offset 14, -4
	.loc 1 35 5 view .LVU3
	movs	r2, #8
	movs	r1, #0
	ldr	r0, .L3
	bl	memset
.LVL0:
	.loc 1 36 1 view .LVU4
	@ sp needed
	pop	{r4, pc}
.L4:
	.align	2
.L3:
	.word	.LANCHOR0
	.cfi_endproc
.LFE0:
	.size	state_setup, .-state_setup
	.section	.text.state_get_idle_current,"ax",%progbits
	.align	1
	.p2align 2,,3
	.global	state_get_idle_current
	.syntax unified
	.code	16
	.thumb_func
	.fpu softvfp
	.type	state_get_idle_current, %function
state_get_idle_current:
.LFB1:
	.loc 1 38 34 is_stmt 1 view -0
	.cfi_startproc
	@ args = 0, pretend = 0, frame = 0
	@ frame_needed = 0, uses_anonymous_args = 0
	@ link register save eliminated.
	.loc 1 39 5 view .LVU6
	.loc 1 39 18 is_stmt 0 view .LVU7
	ldr	r3, .L6
	.loc 1 40 1 view .LVU8
	@ sp needed
	.loc 1 39 18 view .LVU9
	ldr	r0, [r3]
	.loc 1 40 1 view .LVU10
	bx	lr
.L7:
	.align	2
.L6:
	.word	.LANCHOR0
	.cfi_endproc
.LFE1:
	.size	state_get_idle_current, .-state_get_idle_current
	.section	.text.state_set_idle_current,"ax",%progbits
	.align	1
	.p2align 2,,3
	.global	state_set_idle_current
	.syntax unified
	.code	16
	.thumb_func
	.fpu softvfp
	.type	state_set_idle_current, %function
state_set_idle_current:
.LVL1:
.LFB2:
	.loc 1 42 37 is_stmt 1 view -0
	.cfi_startproc
	@ args = 0, pretend = 0, frame = 0
	@ frame_needed = 0, uses_anonymous_args = 0
	@ link register save eliminated.
	.loc 1 43 5 view .LVU12
	.loc 1 43 24 is_stmt 0 view .LVU13
	ldr	r3, .L9
	.loc 1 44 1 view .LVU14
	@ sp needed
	.loc 1 43 24 view .LVU15
	str	r0, [r3]
	.loc 1 44 1 view .LVU16
	bx	lr
.L10:
	.align	2
.L9:
	.word	.LANCHOR0
	.cfi_endproc
.LFE2:
	.size	state_set_idle_current, .-state_set_idle_current
	.section	.text.state_get_echo,"ax",%progbits
	.align	1
	.p2align 2,,3
	.global	state_get_echo
	.syntax unified
	.code	16
	.thumb_func
	.fpu softvfp
	.type	state_get_echo, %function
state_get_echo:
.LFB3:
	.loc 1 46 26 is_stmt 1 view -0
	.cfi_startproc
	@ args = 0, pretend = 0, frame = 0
	@ frame_needed = 0, uses_anonymous_args = 0
	@ link register save eliminated.
	.loc 1 47 5 view .LVU18
	.loc 1 48 1 is_stmt 0 view .LVU19
	movs	r0, #1
	@ sp needed
	bx	lr
	.cfi_endproc
.LFE3:
	.size	state_get_echo, .-state_get_echo
	.section	.text.state_set_echo,"ax",%progbits
	.align	1
	.p2align 2,,3
	.global	state_set_echo
	.syntax unified
	.code	16
	.thumb_func
	.fpu softvfp
	.type	state_set_echo, %function
state_set_echo:
.LVL2:
.LFB4:
	.loc 1 50 32 is_stmt 1 view -0
	.cfi_startproc
	@ args = 0, pretend = 0, frame = 0
	@ frame_needed = 0, uses_anonymous_args = 0
	@ link register save eliminated.
	.loc 1 51 5 view .LVU21
	.loc 1 51 22 is_stmt 0 view .LVU22
	ldr	r3, .L13
	.loc 1 52 1 view .LVU23
	@ sp needed
	.loc 1 51 22 view .LVU24
	strb	r0, [r3, #4]
	.loc 1 52 1 view .LVU25
	bx	lr
.L14:
	.align	2
.L13:
	.word	.LANCHOR0
	.cfi_endproc
.LFE4:
	.size	state_set_echo, .-state_set_echo
	.section	.bss.cState,"aw",%nobits
	.align	2
	.set	.LANCHOR0,. + 0
	.type	cState, %object
	.size	cState, 8
cState:
	.space	8
	.text
.Letext0:
	.file 2 "/home/a.malinowsk2/Programs/gcc-arm-none-eabi-8-2018-q4-major/arm-none-eabi/include/sys/lock.h"
	.file 3 "/home/a.malinowsk2/Programs/gcc-arm-none-eabi-8-2018-q4-major/arm-none-eabi/include/sys/_types.h"
	.file 4 "/home/a.malinowsk2/Programs/gcc-arm-none-eabi-8-2018-q4-major/lib/gcc/arm-none-eabi/8.2.1/include/stddef.h"
	.file 5 "/home/a.malinowsk2/Programs/gcc-arm-none-eabi-8-2018-q4-major/arm-none-eabi/include/sys/reent.h"
	.file 6 "<built-in>"