	.cpu cortex-m0
	.eabi_attribute 20, 1
	.eabi_attribute 21, 1
	.eabi_attribute 23, 3
	.eabi_attribute 24, 1
	.eabi_attribute 25, 1
	.eabi_attribute 26, 1
	.eabi_attribute 30, 2
	.eabi_attribute 34, 0
	.eabi_attribute 18, 4
	.file	"uart.c"
	.text
.Ltext0:
	.cfi_sections	.debug_frame
	.section	.text.uart_putc,"ax",%progbits
	.align	1
	.p2align 2,,3
	.global	uart_putc
	.arch armv6s-m
	.syntax unified
	.code	16
	.thumb_func
	.fpu softvfp
	.type	uart_putc, %function
uart_putc:
.LVL0:
.LFB6:
	.file 1 "uart.c"
	.loc 1 119 27 view -0
	.cfi_startproc
	@ args = 0, pretend = 0, frame = 0
	@ frame_needed = 0, uses_anonymous_args = 0
	.loc 1 120 5 view .LVU1
	.loc 1 119 27 is_stmt 0 view .LVU2
	push	{r4, lr}
	.cfi_def_cfa_offset 8
	.cfi_offset 4, -8
	.cfi_offset 14, -4
	.loc 1 120 5 view .LVU3
	uxth	r1, r0
	ldr	r0, .L3
.LVL1:
	.loc 1 120 5 view .LVU4
	bl	usart_send_blocking
.LVL2:
	.loc 1 121 1 view .LVU5
	@ sp needed
	pop	{r4, pc}
.L4:
	.align	2
.L3:
	.word	1073821696
	.cfi_endproc
.LFE6:
	.size	uart_putc, .-uart_putc
	.section	.text.usart1_isr,"ax",%progbits
	.align	1
	.p2align 2,,3
	.global	usart1_isr
	.syntax unified
	.code	16
	.thumb_func
	.fpu softvfp
	.type	usart1_isr, %function
usart1_isr:
.LFB0:
	.loc 1 43 23 is_stmt 1 view -0
	.cfi_startproc
	@ args = 0, pretend = 0, frame = 8
	@ frame_needed = 0, uses_anonymous_args = 0
	.loc 1 44 5 view .LVU7
	.loc 1 44 10 is_stmt 0 view .LVU8
	movs	r3, #0
	.loc 1 43 23 view .LVU9
	push	{lr}
	.cfi_def_cfa_offset 4
	.cfi_offset 14, -4
	.loc 1 45 12 view .LVU10
	ldr	r0, .L16
	.loc 1 43 23 view .LVU11
	sub	sp, sp, #12
	.cfi_def_cfa_offset 16
	.loc 1 44 10 view .LVU12
	str	r3, [sp, #4]
	.loc 1 45 5 is_stmt 1 view .LVU13
	.loc 1 45 12 is_stmt 0 view .LVU14
	ldr	r2, [r0]
	.loc 1 45 87 view .LVU15
	adds	r3, r3, #32
	.loc 1 45 8 view .LVU16
	tst	r3, r2
	beq	.L5
	.loc 1 46 12 discriminator 1 view .LVU17
	ldr	r2, .L16+4
	ldr	r2, [r2]
	.loc 1 45 105 discriminator 1 view .LVU18
	tst	r3, r2
	bne	.L15
.L5:
	.loc 1 51 1 view .LVU19
	add	sp, sp, #12
	@ sp needed
	pop	{pc}
.L15:
.LBB2:
	.loc 1 47 9 is_stmt 1 view .LVU20
	.loc 1 47 24 is_stmt 0 view .LVU21
	bl	usart_recv
.LVL3:
	.loc 1 47 17 view .LVU22
	mov	r3, sp
	adds	r1, r3, #3
	.loc 1 48 9 view .LVU23
	ldr	r3, .L16+8
	.loc 1 47 17 view .LVU24
	strb	r0, [r1]
	.loc 1 48 9 is_stmt 1 view .LVU25
	add	r2, sp, #4
	ldr	r0, [r3]
	movs	r3, #0
	bl	xQueueGenericSendFromISR
.LVL4:
.LBE2:
	.loc 1 50 5 view .LVU26
	.loc 1 50 7 is_stmt 0 view .LVU27
	ldr	r3, [sp, #4]
	cmp	r3, #0
	beq	.L5
	.loc 1 50 36 is_stmt 1 discriminator 1 view .LVU28
	.loc 1 50 81 is_stmt 0 discriminator 1 view .LVU29
	movs	r2, #128
	ldr	r3, .L16+12
	lsls	r2, r2, #21
	str	r2, [r3]
	.loc 1 51 1 discriminator 1 view .LVU30
	b	.L5
.L17:
	.align	2
.L16:
	.word	1073821696
	.word	1073821724
	.word	.LANCHOR0
	.word	-536810236
	.cfi_endproc
.LFE0:
	.size	usart1_isr, .-usart1_isr
	.global	__aeabi_idiv
	.section	.text.uart_set_voltage,"ax",%progbits
	.align	1
	.p2align 2,,3
	.global	uart_set_voltage
	.syntax unified
	.code	16
	.thumb_func
	.fpu softvfp
	.type	uart_set_voltage, %function
uart_set_voltage:
.LVL5:
.LFB2:
	.loc 1 74 35 is_stmt 1 view -0
	.cfi_startproc
	@ args = 0, pretend = 0, frame = 0
	@ frame_needed = 0, uses_anonymous_args = 0
	.loc 1 76 5 view .LVU32
	.loc 1 77 5 view .LVU33
	.loc 1 76 31 is_stmt 0 view .LVU34
	movs	r1, #50
	.loc 1 74 35 view .LVU35
	push	{r4, lr}
	.cfi_def_cfa_offset 8
	.cfi_offset 4, -8
	.cfi_offset 14, -4
	.loc 1 76 31 view .LVU36
	rsbs	r1, r1, #0
	bl	__aeabi_idiv
.LVL6:
	.loc 1 76 9 view .LVU37
	movs	r2, r0
	.loc 1 77 5 view .LVU38
	movs	r1, #0
	.loc 1 76 9 view .LVU39
	adds	r2, r2, #100
	.loc 1 77 5 view .LVU40
	ldr	r0, .L19
	bl	timer_set_oc_value
.LVL7:
	.loc 1 78 1 view .LVU41
	@ sp needed
	pop	{r4, pc}
.L20:
	.align	2
.L19:
	.word	1073825792
	.cfi_endproc
.LFE2:
	.size	uart_set_voltage, .-uart_set_voltage
	.section	.text.uart_get_voltage,"ax",%progbits
	.align	1
	.p2align 2,,3
	.global	uart_get_voltage
	.syntax unified
	.code	16
	.thumb_func
	.fpu softvfp
	.type	uart_get_voltage, %function
uart_get_voltage:
.LFB3:
	.loc 1 80 28 is_stmt 1 view -0
	.cfi_startproc
	@ args = 0, pretend = 0, frame = 0
	@ frame_needed = 0, uses_anonymous_args = 0
	@ link register save eliminated.
	.loc 1 81 5 view .LVU43
	.loc 1 82 27 is_stmt 0 view .LVU44
	movs	r0, #50
	.loc 1 81 17 view .LVU45
	ldr	r3, .L22
	.loc 1 83 1 view .LVU46
	@ sp needed
	.loc 1 81 17 view .LVU47
	ldr	r3, [r3]
.LVL8:
	.loc 1 82 5 is_stmt 1 view .LVU48
	.loc 1 82 27 is_stmt 0 view .LVU49
	muls	r0, r3
	.loc 1 83 1 view .LVU50
	bx	lr
.L23:
	.align	2
.L22:
	.word	1073825844
	.cfi_endproc
.LFE3:
	.size	uart_get_voltage, .-uart_get_voltage
	.section	.text.uart_setup,"ax",%progbits
	.align	1
	.p2align 2,,3
	.global	uart_setup
	.syntax unified
	.code	16
	.thumb_func
	.fpu softvfp
	.type	uart_setup, %function
uart_setup:
.LFB4:
	.loc 1 85 23 is_stmt 1 view -0
	.cfi_startproc
	@ args = 0, pretend = 0, frame = 0
	@ frame_needed = 0, uses_anonymous_args = 0
	.loc 1 89 5 view .LVU52
	.loc 1 85 23 is_stmt 0 view .LVU53
	push	{r4, r5, r6, lr}
	.cfi_def_cfa_offset 16
	.cfi_offset 4, -16
	.cfi_offset 5, -12
	.cfi_offset 6, -8
	.cfi_offset 14, -4
	.loc 1 89 28 view .LVU54
	movs	r1, #1
	movs	r2, #0
	movs	r0, #32
	bl	xQueueGenericCreate
.LVL9:
	.loc 1 98 5 view .LVU55
	movs	r5, #192
	movs	r4, #144
	.loc 1 89 26 view .LVU56
	ldr	r3, .L25
	.loc 1 94 15 view .LVU57
	ldr	r2, .L25+4
	.loc 1 89 26 view .LVU58
	str	r0, [r3]
	.loc 1 94 5 is_stmt 1 view .LVU59
	.loc 1 94 15 is_stmt 0 view .LVU60
	ldr	r3, .L25+8
	.loc 1 98 5 view .LVU61
	lsls	r5, r5, #3
	lsls	r4, r4, #23
	.loc 1 96 5 view .LVU62
	movs	r0, #27
	.loc 1 94 15 view .LVU63
	str	r2, [r3]
	.loc 1 96 5 is_stmt 1 view .LVU64
	bl	nvic_enable_irq
.LVL10:
	.loc 1 98 5 view .LVU65
	movs	r3, r5
	movs	r0, r4
	movs	r2, #0
	movs	r1, #2
	bl	gpio_mode_setup
.LVL11:
	.loc 1 99 5 view .LVU66
	movs	r2, r5
	movs	r0, r4
	movs	r1, #1
	bl	gpio_set_af
.LVL12:
	.loc 1 101 5 view .LVU67
	movs	r1, #225
.LBB5:
.LBB6:
	.loc 1 56 5 is_stmt 0 view .LVU68
	movs	r5, #128
.LBE6:
.LBE5:
	.loc 1 101 5 view .LVU69
	ldr	r4, .L25+12
	lsls	r1, r1, #9
	movs	r0, r4
	bl	usart_set_baudrate
.LVL13:
	.loc 1 102 5 is_stmt 1 view .LVU70
	movs	r0, r4
	movs	r1, #8
	bl	usart_set_databits
.LVL14:
	.loc 1 103 5 view .LVU71
	movs	r0, r4
	movs	r1, #0
	bl	usart_set_stopbits
.LVL15:
	.loc 1 104 5 view .LVU72
	movs	r0, r4
	movs	r1, #0
	bl	usart_set_parity
.LVL16:
	.loc 1 105 5 view .LVU73
	movs	r0, r4
	movs	r1, #0
	bl	usart_set_flow_control
.LVL17:
	.loc 1 106 5 view .LVU74
	movs	r1, #12
	movs	r0, r4
	bl	usart_set_mode
.LVL18:
	.loc 1 108 5 view .LVU75
	movs	r0, r4
	bl	usart_enable_rx_interrupt
.LVL19:
	.loc 1 110 5 view .LVU76
	movs	r0, r4
.LBB10:
.LBB7:
	.loc 1 56 5 is_stmt 0 view .LVU77
	ldr	r4, .L25+16
	lsls	r5, r5, #2
.LBE7:
.LBE10:
	.loc 1 110 5 view .LVU78
	bl	usart_enable
.LVL20:
	.loc 1 112 5 is_stmt 1 view .LVU79
.LBB11:
.LBI5:
	.loc 1 55 13 view .LVU80
.LBB8:
	.loc 1 56 5 view .LVU81
	movs	r3, r5
	movs	r0, r4
	movs	r2, #0
	movs	r1, #2
	bl	gpio_mode_setup
.LVL21:
	.loc 1 57 5 view .LVU82
	movs	r2, r5
	movs	r1, #2
	movs	r0, r4
	bl	gpio_set_af
.LVL22:
	.loc 1 59 5 view .LVU83
	movs	r0, #201
	.loc 1 61 5 is_stmt 0 view .LVU84
	ldr	r4, .L25+20
	.loc 1 59 5 view .LVU85
	lsls	r0, r0, #1
	bl	rcc_periph_reset_pulse
.LVL23:
	.loc 1 61 5 is_stmt 1 view .LVU86
	movs	r3, #0
	movs	r2, #0
	movs	r1, r5
	movs	r0, r4
	bl	timer_set_mode
.LVL24:
	.loc 1 62 5 view .LVU87
	movs	r0, r4
	movs	r1, #0
	bl	timer_set_prescaler
.LVL25:
	.loc 1 63 5 view .LVU88
	movs	r0, r4
	movs	r1, #99
	bl	timer_set_period
.LVL26:
	.loc 1 64 5 view .LVU89
	movs	r0, r4
	movs	r2, #100
	movs	r1, #0
	bl	timer_set_oc_value
.LVL27:
	.loc 1 65 5 view .LVU90
	.loc 1 65 81 is_stmt 0 view .LVU91
	movs	r1, #112
	ldr	r2, .L25+24
	.loc 1 67 5 view .LVU92
	movs	r0, r4
	.loc 1 65 81 view .LVU93
	ldr	r3, [r2]
.LBE8:
.LBE11:
	.loc 1 113 1 view .LVU94
	@ sp needed
.LBB12:
.LBB9:
	.loc 1 65 81 view .LVU95
	orrs	r3, r1
	str	r3, [r2]
	.loc 1 67 5 is_stmt 1 view .LVU96
	movs	r1, #0
	bl	timer_enable_oc_output
.LVL28:
	.loc 1 68 5 view .LVU97
	.loc 1 68 81 is_stmt 0 view .LVU98
	movs	r3, #128
	ldr	r2, .L25+28
	lsls	r3, r3, #8
	ldr	r1, [r2]
	.loc 1 70 5 view .LVU99
	movs	r0, r4
	.loc 1 68 81 view .LVU100
	orrs	r3, r1
	str	r3, [r2]
	.loc 1 70 5 is_stmt 1 view .LVU101
	movs	r1, #1
	bl	timer_generate_event
.LVL29:
	.loc 1 71 5 view .LVU102
	movs	r0, r4
	bl	timer_enable_counter
.LVL30:
.LBE9:
.LBE12:
	.loc 1 113 1 is_stmt 0 view .LVU103
	pop	{r4, r5, r6, pc}
.L26:
	.align	2
.L25:
	.word	.LANCHOR0
	.word	uart_putc
	.word	xfunc_out
	.word	1073821696
	.word	1207960576
	.word	1073825792
	.word	1073825816
	.word	1073825860
	.cfi_endproc
.LFE4:
	.size	uart_setup, .-uart_setup
	.section	.text.uart_send,"ax",%progbits
	.align	1
	.p2align 2,,3
	.global	uart_send
	.syntax unified
	.code	16
	.thumb_func
	.fpu softvfp
	.type	uart_send, %function
uart_send:
.LVL31:
.LFB5:
	.loc 1 115 28 is_stmt 1 view -0
	.cfi_startproc
	@ args = 0, pretend = 0, frame = 0
	@ frame_needed = 0, uses_anonymous_args = 0
	@ link register save eliminated.
	.loc 1 116 5 view .LVU105
	.loc 1 117 1 is_stmt 0 view .LVU106
	@ sp needed
	bx	lr
	.cfi_endproc
.LFE5:
	.size	uart_send, .-uart_send
	.global	usart_incoming_queue
	.section	.bss.usart_incoming_queue,"aw",%nobits
	.align	2
	.set	.LANCHOR0,. + 0
	.type	usart_incoming_queue, %object
	.size	usart_incoming_queue, 4
usart_incoming_queue:
	.space	4
	.text
.Letext0:
	.file 2 "/home/a.malinowsk2/Programs/gcc-arm-none-eabi-8-2018-q4-major/arm-none-eabi/include/machine/_default_types.h"
	.file 3 "/home/a.malinowsk2/Programs/gcc-arm-none-eabi-8-2018-q4-major/arm-none-eabi/include/sys/_stdint.h"
	.file 4 "../libopencm3/include/libopencm3/stm32/f0/rcc.h"
	.file 5 "../libopencm3/include/libopencm3/stm32/common/timer_common_all.h"
	.file 6 "../FreeRTOS/Source/portable/GCC/ARM_CM0/portmacro.h"
	.file 7 "../include/xprintf.h"
	.file 8 "../FreeRTOS/Source/include/queue.h"
	.file 9 "../include/uart.h"
	.file 10 "../libopencm3/include/libopencm3/stm32/common/usart_common_all.h"
	.file 11 "../libopencm3/include/libopencm3/stm32/common/gpio_common_f234.h"
	.file 12 "../libopencm3/include/libopencm3/stm32/common/rcc_common_all.h"
	.file 13 "../libopencm3/include/libopencm3/cm3/nvic.h"