	.cpu cortex-m0
	.eabi_attribute 20, 1
	.eabi_attribute 21, 1
	.eabi_attribute 23, 3
	.eabi_attribute 24, 1
	.eabi_attribute 25, 1
	.eabi_attribute 26, 1
	.eabi_attribute 30, 2
	.eabi_attribute 34, 0
	.eabi_attribute 18, 4
	.file	"ws2812.c"
	.text
.Ltext0:
	.cfi_sections	.debug_frame
	.section	.text.ws2812_set_led_color,"ax",%progbits
	.align	1
	.p2align 2,,3
	.global	ws2812_set_led_color
	.arch armv6s-m
	.syntax unified
	.code	16
	.thumb_func
	.fpu softvfp
	.type	ws2812_set_led_color, %function
ws2812_set_led_color:
.LVL0:
.LFB5:
	.file 1 "ws2812.c"
	.loc 1 108 23 view -0
	.cfi_startproc
	@ args = 0, pretend = 0, frame = 24
	@ frame_needed = 0, uses_anonymous_args = 0
	.loc 1 109 5 view .LVU1
	.loc 1 110 5 view .LVU2
	.loc 1 111 5 view .LVU3
	.loc 1 112 5 view .LVU4
	.loc 1 108 23 is_stmt 0 view .LVU5
	push	{r4, r5, r6, r7, lr}
	.cfi_def_cfa_offset 20
	.cfi_offset 4, -20
	.cfi_offset 5, -16
	.cfi_offset 6, -12
	.cfi_offset 7, -8
	.cfi_offset 14, -4
	.loc 1 112 14 view .LVU6
	movs	r4, #1
	.loc 1 108 23 view .LVU7
	mov	lr, r8
	.loc 1 114 29 view .LVU8
	ldr	r5, .L17
	lsls	r6, r0, #1
	.loc 1 112 14 view .LVU9
	ands	r4, r0
	.loc 1 114 29 view .LVU10
	adds	r0, r6, r0
.LVL1:
	.loc 1 108 23 view .LVU11
	push	{lr}
	.cfi_def_cfa_offset 24
	.cfi_offset 8, -24
	.loc 1 114 29 view .LVU12
	strb	r1, [r0, r5]
	.loc 1 115 31 view .LVU13
	adds	r5, r5, r0
	.loc 1 119 39 view .LVU14
	movs	r0, #128
	.loc 1 108 23 view .LVU15
	sub	sp, sp, #24
	.cfi_def_cfa_offset 48
	.loc 1 115 31 view .LVU16
	strb	r2, [r5, #1]
	.loc 1 116 30 view .LVU17
	strb	r3, [r5, #2]
	.loc 1 112 14 view .LVU18
	mov	ip, r4
.LVL2:
	.loc 1 114 5 is_stmt 1 view .LVU19
	.loc 1 115 5 view .LVU20
	.loc 1 116 5 view .LVU21
	.loc 1 118 5 view .LVU22
	.loc 1 118 5 is_stmt 0 view .LVU23
	mov	r6, sp
	.loc 1 118 12 view .LVU24
	movs	r5, #0
	.loc 1 119 39 view .LVU25
	mov	r8, r0
	.loc 1 119 23 view .LVU26
	movs	r7, #20
.LVL3:
.L3:
	.loc 1 119 9 is_stmt 1 view .LVU27
	.loc 1 119 33 is_stmt 0 view .LVU28
	movs	r0, r2
	.loc 1 119 39 view .LVU29
	mov	r4, r8
	.loc 1 119 33 view .LVU30
	lsls	r0, r0, r5
	.loc 1 119 39 view .LVU31
	ands	r0, r4
	.loc 1 119 23 view .LVU32
	subs	r4, r0, #1
	sbcs	r0, r0, r4
	rsbs	r0, r0, #0
	ands	r0, r7
	adds	r0, r0, #20
	.loc 1 118 25 view .LVU33
	adds	r5, r5, #1
.LVL4:
	.loc 1 119 23 view .LVU34
	strb	r0, [r6]
	adds	r6, r6, #1
	.loc 1 118 5 view .LVU35
	cmp	r5, #8
	bne	.L3
	.loc 1 120 12 view .LVU36
	movs	r0, #0
	.loc 1 121 41 view .LVU37
	movs	r7, #128
	.loc 1 121 27 view .LVU38
	movs	r6, #20
.LVL5:
.L5:
	.loc 1 121 9 is_stmt 1 view .LVU39
	.loc 1 121 35 is_stmt 0 view .LVU40
	movs	r2, r1
	lsls	r2, r2, r0
	.loc 1 121 41 view .LVU41
	ands	r2, r7
	.loc 1 121 27 view .LVU42
	subs	r5, r2, #1
	sbcs	r2, r2, r5
	movs	r5, r0
	rsbs	r2, r2, #0
	ands	r2, r6
	adds	r2, r2, #20
	add	r5, r5, sp
	.loc 1 120 25 view .LVU43
	adds	r0, r0, #1
.LVL6:
	.loc 1 121 27 view .LVU44
	strb	r2, [r5, #8]
	.loc 1 120 5 view .LVU45
	cmp	r0, #8
	bne	.L5
	.loc 1 122 12 view .LVU46
	movs	r1, #0
.LVL7:
	.loc 1 123 43 view .LVU47
	movs	r6, #128
	.loc 1 123 28 view .LVU48
	movs	r5, #20
.LVL8:
.L7:
	.loc 1 123 9 is_stmt 1 view .LVU49
	.loc 1 123 37 is_stmt 0 view .LVU50
	movs	r2, r3
	lsls	r2, r2, r1
	.loc 1 123 43 view .LVU51
	ands	r2, r6
	.loc 1 123 28 view .LVU52
	subs	r0, r2, #1
	sbcs	r2, r2, r0
	movs	r0, r1
	rsbs	r2, r2, #0
	ands	r2, r5
	adds	r2, r2, #20
	add	r0, r0, sp
	.loc 1 122 25 view .LVU53
	adds	r1, r1, #1
.LVL9:
	.loc 1 123 28 view .LVU54
	strb	r2, [r0, #16]
	.loc 1 122 5 view .LVU55
	cmp	r1, #8
	bne	.L7
	.loc 1 126 35 view .LVU56
	mov	r3, ip
.LVL10:
	.loc 1 126 35 view .LVU57
	lsls	r2, r3, #1
	add	r2, r2, ip
	lsls	r4, r2, #3
	movs	r2, r4
	mov	r1, sp
.LVL11:
	.loc 1 126 35 view .LVU58
	movs	r3, #1
	.loc 1 126 45 view .LVU59
	ldr	r4, .L17+4
	adds	r2, r2, #49
	subs	r1, r1, #1
	adds	r4, r4, r2
.L8:
.LVL12:
	.loc 1 126 9 is_stmt 1 discriminator 3 view .LVU60
	.loc 1 126 45 is_stmt 0 discriminator 3 view .LVU61
	ldrb	r2, [r1, r3]
	strb	r2, [r4, r3]
.LVL13:
	.loc 1 126 45 discriminator 3 view .LVU62
	adds	r3, r3, #1
.LVL14:
	.loc 1 125 5 discriminator 3 view .LVU63
	cmp	r3, #25
	bne	.L8
	.loc 1 127 1 view .LVU64
	add	sp, sp, #24
	@ sp needed
	pop	{r2}
	mov	r8, r2
	pop	{r4, r5, r6, r7, pc}
.L18:
	.align	2
.L17:
	.word	.LANCHOR0
	.word	LEDbuffer
	.cfi_endproc
.LFE5:
	.size	ws2812_set_led_color, .-ws2812_set_led_color
	.section	.text.ws2812_get_led_color,"ax",%progbits
	.align	1
	.p2align 2,,3
	.global	ws2812_get_led_color
	.syntax unified
	.code	16
	.thumb_func
	.fpu softvfp
	.type	ws2812_get_led_color, %function
ws2812_get_led_color:
.LVL15:
.LFB6:
	.loc 1 129 52 is_stmt 1 view -0
	.cfi_startproc
	@ args = 0, pretend = 0, frame = 8
	@ frame_needed = 0, uses_anonymous_args = 0
	.loc 1 130 5 view .LVU66
	.loc 1 130 42 is_stmt 0 view .LVU67
	movs	r2, #2
	movs	r3, #0
	cmp	r2, r0
	adcs	r3, r3, r3
	.loc 1 129 52 view .LVU68
	push	{r4, lr}
	.cfi_def_cfa_offset 8
	.cfi_offset 4, -8
	.cfi_offset 14, -4
	.loc 1 130 42 view .LVU69
	rsbs	r3, r3, #0
	ands	r0, r3
.LVL16:
	.loc 1 130 20 view .LVU70
	lsls	r1, r0, #1
	.loc 1 129 52 view .LVU71
	sub	sp, sp, #8
	.cfi_def_cfa_offset 16
	.loc 1 130 20 view .LVU72
	adds	r0, r1, r0
	ldr	r1, .L21
	add	r4, sp, #4
	adds	r1, r1, r0
	adds	r2, r2, #1
	movs	r0, r4
	bl	memcpy
.LVL17:
	ldrb	r2, [r4, #1]
	ldrb	r0, [r4]
	ldrb	r3, [r4, #2]
	lsls	r2, r2, #8
	lsls	r3, r3, #16
	orrs	r0, r2
	orrs	r0, r3
	.loc 1 131 1 view .LVU73
	add	sp, sp, #8
	@ sp needed
	pop	{r4, pc}
.L22:
	.align	2
.L21:
	.word	.LANCHOR0
	.cfi_endproc
.LFE6:
	.size	ws2812_get_led_color, .-ws2812_get_led_color
	.section	.text.setWHOLEcolor,"ax",%progbits
	.align	1
	.p2align 2,,3
	.global	setWHOLEcolor
	.syntax unified
	.code	16
	.thumb_func
	.fpu softvfp
	.type	setWHOLEcolor, %function
setWHOLEcolor:
.LVL18:
.LFB7:
	.loc 1 133 62 is_stmt 1 view -0
	.cfi_startproc
	@ args = 0, pretend = 0, frame = 0
	@ frame_needed = 0, uses_anonymous_args = 0
	.loc 1 134 5 view .LVU75
	.loc 1 136 5 view .LVU76
	.loc 1 137 9 view .LVU77
	.loc 1 133 62 is_stmt 0 view .LVU78
	push	{r4, r5, r6, lr}
	.cfi_def_cfa_offset 16
	.cfi_offset 4, -16
	.cfi_offset 5, -12
	.cfi_offset 6, -8
	.cfi_offset 14, -4
	.loc 1 133 62 view .LVU79
	movs	r5, r1
	movs	r6, r2
	movs	r4, r0
	.loc 1 137 9 view .LVU80
	movs	r3, r2
	movs	r2, r1
.LVL19:
	.loc 1 137 9 view .LVU81
	movs	r1, r0
.LVL20:
	.loc 1 137 9 view .LVU82
	movs	r0, #0
.LVL21:
	.loc 1 137 9 view .LVU83
	bl	ws2812_set_led_color
.LVL22:
	.loc 1 137 9 is_stmt 1 view .LVU84
	movs	r3, r6
	movs	r2, r5
	movs	r1, r4
	movs	r0, #1
	bl	ws2812_set_led_color
.LVL23:
	.loc 1 138 1 is_stmt 0 view .LVU85
	@ sp needed
	pop	{r4, r5, r6, pc}
	.cfi_endproc
.LFE7:
	.size	setWHOLEcolor, .-setWHOLEcolor
	.section	.text.fillBufferBlack,"ax",%progbits
	.align	1
	.p2align 2,,3
	.global	fillBufferBlack
	.syntax unified
	.code	16
	.thumb_func
	.fpu softvfp
	.type	fillBufferBlack, %function
fillBufferBlack:
.LFB8:
	.loc 1 140 28 is_stmt 1 view -0
	.cfi_startproc
	@ args = 0, pretend = 0, frame = 0
	@ frame_needed = 0, uses_anonymous_args = 0
	@ link register save eliminated.
	.loc 1 141 5 view .LVU87
	.loc 1 142 5 view .LVU88
.LVL24:
	.loc 1 144 5 view .LVU89
	.loc 1 144 5 is_stmt 0 view .LVU90
	ldr	r2, .L31
	.loc 1 145 30 view .LVU91
	movs	r1, #0
	movs	r0, r2
	.loc 1 140 28 view .LVU92
	movs	r3, r2
	adds	r0, r0, #50
.LVL25:
.L25:
	.loc 1 145 9 is_stmt 1 discriminator 3 view .LVU93
	.loc 1 145 30 is_stmt 0 discriminator 3 view .LVU94
	strb	r1, [r3]
	.loc 1 146 9 is_stmt 1 discriminator 3 view .LVU95
.LVL26:
	.loc 1 146 9 is_stmt 0 discriminator 3 view .LVU96
	adds	r3, r3, #1
.LVL27:
	.loc 1 144 5 discriminator 3 view .LVU97
	cmp	r3, r0
	bne	.L25
	movs	r0, r2
	.loc 1 149 30 view .LVU98
	movs	r1, #20
	ldr	r3, .L31+4
.LVL28:
	.loc 1 149 30 view .LVU99
	adds	r0, r0, #98
.L26:
.LVL29:
	.loc 1 149 9 is_stmt 1 discriminator 3 view .LVU100
	.loc 1 149 30 is_stmt 0 discriminator 3 view .LVU101
	strb	r1, [r3]
	.loc 1 150 9 is_stmt 1 discriminator 3 view .LVU102
.LVL30:
	.loc 1 150 9 is_stmt 0 discriminator 3 view .LVU103
	adds	r3, r3, #1
.LVL31:
	.loc 1 148 5 discriminator 3 view .LVU104
	cmp	r0, r3
	bne	.L26
	.loc 1 152 5 is_stmt 1 view .LVU105
	.loc 1 152 26 is_stmt 0 view .LVU106
	movs	r3, #98
.LVL32:
	.loc 1 152 26 view .LVU107
	strb	r1, [r2, r3]
	.loc 1 153 5 is_stmt 1 view .LVU108
.LVL33:
	.loc 1 154 5 view .LVU109
	.loc 1 154 5 is_stmt 0 view .LVU110
	movs	r3, r2
	.loc 1 155 30 view .LVU111
	movs	r1, #0
	adds	r3, r3, #99
	adds	r2, r2, #149
.LVL34:
.L27:
	.loc 1 155 9 is_stmt 1 discriminator 3 view .LVU112
	.loc 1 155 30 is_stmt 0 discriminator 3 view .LVU113
	strb	r1, [r3]
	.loc 1 156 9 is_stmt 1 discriminator 3 view .LVU114
.LVL35:
	.loc 1 156 9 is_stmt 0 discriminator 3 view .LVU115
	adds	r3, r3, #1
.LVL36:
	.loc 1 154 5 discriminator 3 view .LVU116
	cmp	r3, r2
	bne	.L27
	.loc 1 158 1 view .LVU117
	@ sp needed
	bx	lr
.L32:
	.align	2
.L31:
	.word	LEDbuffer
	.word	LEDbuffer+50
	.cfi_endproc
.LFE8:
	.size	fillBufferBlack, .-fillBufferBlack
	.section	.text.ws2812_init,"ax",%progbits
	.align	1
	.p2align 2,,3
	.global	ws2812_init
	.syntax unified
	.code	16
	.thumb_func
	.fpu softvfp
	.type	ws2812_init, %function
ws2812_init:
.LFB4:
	.loc 1 60 24 is_stmt 1 view -0
	.cfi_startproc
	@ args = 0, pretend = 0, frame = 0
	@ frame_needed = 0, uses_anonymous_args = 0
	.loc 1 61 5 view .LVU119
	.loc 1 60 24 is_stmt 0 view .LVU120
	push	{r4, r5, r6, lr}
	.cfi_def_cfa_offset 16
	.cfi_offset 4, -16
	.cfi_offset 5, -12
	.cfi_offset 6, -8
	.cfi_offset 14, -4
	.loc 1 73 5 view .LVU121
	movs	r6, #128
	.loc 1 61 5 view .LVU122
	bl	fillBufferBlack
.LVL37:
	.loc 1 62 5 is_stmt 1 view .LVU123
	movs	r3, #0
	movs	r2, #0
	movs	r1, #255
	movs	r0, #0
	bl	ws2812_set_led_color
.LVL38:
	.loc 1 63 5 view .LVU124
	.loc 1 66 5 is_stmt 0 view .LVU125
	ldr	r4, .L34
	.loc 1 63 5 view .LVU126
	movs	r3, #0
	movs	r2, #127
	movs	r1, #0
	movs	r0, #1
	bl	ws2812_set_led_color
.LVL39:
	.loc 1 64 5 is_stmt 1 view .LVU127
	movs	r3, #20
	movs	r2, #20
	movs	r1, #20
	movs	r0, #0
	bl	ws2812_set_led_color
.LVL40:
	.loc 1 66 5 view .LVU128
	movs	r0, r4
	movs	r3, #1
	movs	r2, #0
	movs	r1, #2
	bl	gpio_mode_setup
.LVL41:
	.loc 1 67 5 view .LVU129
	movs	r3, #1
	movs	r0, r4
	movs	r2, #3
	movs	r1, #1
	bl	gpio_set_output_options
.LVL42:
	.loc 1 69 5 view .LVU130
	movs	r2, #1
	movs	r1, #1
	movs	r0, r4
	.loc 1 73 5 is_stmt 0 view .LVU131
	ldr	r4, .L34+4
	.loc 1 69 5 view .LVU132
	bl	gpio_set_af
.LVL43:
	.loc 1 71 5 is_stmt 1 view .LVU133
	.loc 1 73 5 is_stmt 0 view .LVU134
	lsls	r6, r6, #2
	.loc 1 71 5 view .LVU135
	ldr	r0, .L34+8
	bl	rcc_periph_reset_pulse
.LVL44:
	.loc 1 73 5 is_stmt 1 view .LVU136
	movs	r3, #0
	movs	r2, #0
	movs	r1, r6
	movs	r0, r4
	bl	timer_set_mode
.LVL45:
	.loc 1 76 5 view .LVU137
	movs	r0, r4
	movs	r1, #0
	bl	timer_set_prescaler
.LVL46:
	.loc 1 77 5 view .LVU138
	movs	r1, #0
	movs	r0, r4
	bl	timer_set_repetition_counter
.LVL47:
	.loc 1 78 5 view .LVU139
	movs	r0, r4
	bl	timer_enable_preload
.LVL48:
	.loc 1 80 5 view .LVU140
	movs	r0, r4
	movs	r1, #59
	bl	timer_set_period
.LVL49:
	.loc 1 82 5 view .LVU141
	movs	r0, r4
	movs	r1, #4
	bl	timer_disable_oc_output
.LVL50:
	.loc 1 83 5 view .LVU142
	movs	r0, r4
	movs	r1, #5
	bl	timer_disable_oc_output
.LVL51:
	.loc 1 85 5 view .LVU143
	movs	r0, r4
	movs	r1, #4
	bl	timer_disable_oc_clear
.LVL52:
	.loc 1 86 5 view .LVU144
	movs	r0, r4
	movs	r1, #4
	bl	timer_enable_oc_preload
.LVL53:
	.loc 1 87 5 view .LVU145
	movs	r0, r4
	movs	r1, #4
	bl	timer_set_oc_slow_mode
.LVL54:
	.loc 1 88 5 view .LVU146
	movs	r2, #6
	movs	r0, r4
	movs	r1, #4
	bl	timer_set_oc_mode
.LVL55:
	.loc 1 90 5 view .LVU147
	movs	r0, r4
	movs	r1, #4
	bl	timer_set_oc_polarity_high
.LVL56:
	.loc 1 91 5 view .LVU148
	movs	r0, r4
	movs	r1, #4
	bl	timer_set_oc_idle_state_set
.LVL57:
	.loc 1 93 5 view .LVU149
	movs	r2, #20
	movs	r0, r4
	movs	r1, #4
	bl	timer_set_oc_value
.LVL58:
	.loc 1 95 5 view .LVU150
	movs	r1, #4
	movs	r0, r4
	bl	timer_enable_oc_output
.LVL59:
	.loc 1 97 5 view .LVU151
	movs	r0, r4
	bl	timer_enable_preload
.LVL60:
	.loc 1 98 5 view .LVU152
	movs	r0, r4
	movs	r1, #1
	bl	timer_generate_event
.LVL61:
	.loc 1 100 5 view .LVU153
	movs	r1, #128
.LBB4:
.LBB5:
	.loc 1 40 5 is_stmt 0 view .LVU154
	ldr	r5, .L34+12
.LBE5:
.LBE4:
	.loc 1 100 5 view .LVU155
	lsls	r1, r1, #4
	movs	r0, r4
	bl	timer_enable_irq
.LVL62:
	.loc 1 102 5 is_stmt 1 view .LVU156
.LBB7:
.LBI4:
	.loc 1 37 13 view .LVU157
.LBB6:
	.loc 1 38 5 view .LVU158
	movs	r0, r4
	bl	timer_set_dma_on_update_event
.LVL63:
	.loc 1 40 5 view .LVU159
	movs	r0, r5
	movs	r1, #2
	bl	dma_channel_reset
.LVL64:
	.loc 1 42 5 view .LVU160
	movs	r0, r5
	ldr	r2, .L34+16
	movs	r1, #2
	bl	dma_set_peripheral_address
.LVL65:
	.loc 1 43 5 view .LVU161
	movs	r2, r6
	movs	r0, r5
	movs	r1, #2
	bl	dma_set_peripheral_size
.LVL66:
	.loc 1 44 5 view .LVU162
	movs	r0, r5
	ldr	r2, .L34+20
	movs	r1, #2
	bl	dma_set_memory_address
.LVL67:
	.loc 1 45 5 view .LVU163
	movs	r0, r5
	movs	r2, #0
	movs	r1, #2
	bl	dma_set_memory_size
.LVL68:
	.loc 1 46 5 view .LVU164
	movs	r2, #149
	movs	r0, r5
	movs	r1, #2
	bl	dma_set_number_of_data
.LVL69:
	.loc 1 47 5 view .LVU165
	movs	r0, r5
	movs	r1, #2
	bl	dma_set_read_from_memory
.LVL70:
	.loc 1 48 5 view .LVU166
	movs	r0, r5
	movs	r1, #2
	bl	dma_enable_memory_increment_mode
.LVL71:
	.loc 1 49 5 view .LVU167
	movs	r0, r5
	movs	r1, #2
	bl	dma_disable_peripheral_increment_mode
.LVL72:
	.loc 1 50 5 view .LVU168
	movs	r2, #128
	movs	r0, r5
	lsls	r2, r2, #6
	movs	r1, #2
	bl	dma_set_priority
.LVL73:
	.loc 1 52 5 view .LVU169
	movs	r0, r5
	movs	r1, #2
	bl	dma_enable_channel
.LVL74:
	.loc 1 54 5 view .LVU170
	movs	r0, r5
	movs	r1, #2
	bl	dma_enable_circular_mode
.LVL75:
	.loc 1 56 5 view .LVU171
	movs	r0, #10
	bl	nvic_enable_irq
.LVL76:
	.loc 1 57 5 view .LVU172
	movs	r1, #0
	movs	r0, #10
	bl	nvic_set_priority
.LVL77:
.LBE6:
.LBE7:
	.loc 1 104 5 view .LVU173
	movs	r0, r4
	bl	timer_enable_counter
.LVL78:
	.loc 1 105 1 is_stmt 0 view .LVU174
	@ sp needed
	pop	{r4, r5, r6, pc}
.L35:
	.align	2
.L34:
	.word	1207960576
	.word	1073742848
	.word	513
	.word	1073872896
	.word	1073742908
	.word	LEDbuffer
	.cfi_endproc
.LFE4:
	.size	ws2812_init, .-ws2812_init
	.section	.text.fillBufferWhite,"ax",%progbits
	.align	1
	.p2align 2,,3
	.global	fillBufferWhite
	.syntax unified
	.code	16
	.thumb_func
	.fpu softvfp
	.type	fillBufferWhite, %function
fillBufferWhite:
.LFB9:
	.loc 1 160 28 is_stmt 1 view -0
	.cfi_startproc
	@ args = 0, pretend = 0, frame = 0
	@ frame_needed = 0, uses_anonymous_args = 0
	@ link register save eliminated.
	.loc 1 161 5 view .LVU176
	.loc 1 162 5 view .LVU177
.LVL79:
	.loc 1 164 5 view .LVU178
	.loc 1 164 5 is_stmt 0 view .LVU179
	ldr	r2, .L43
	.loc 1 165 30 view .LVU180
	movs	r1, #0
	movs	r0, r2
	.loc 1 160 28 view .LVU181
	movs	r3, r2
	adds	r0, r0, #50
.LVL80:
.L37:
	.loc 1 165 9 is_stmt 1 discriminator 3 view .LVU182
	.loc 1 165 30 is_stmt 0 discriminator 3 view .LVU183
	strb	r1, [r3]
	.loc 1 166 9 is_stmt 1 discriminator 3 view .LVU184
.LVL81:
	.loc 1 166 9 is_stmt 0 discriminator 3 view .LVU185
	adds	r3, r3, #1
.LVL82:
	.loc 1 164 5 discriminator 3 view .LVU186
	cmp	r3, r0
	bne	.L37
	movs	r0, r2
	.loc 1 169 30 view .LVU187
	movs	r1, #40
	ldr	r3, .L43+4
.LVL83:
	.loc 1 169 30 view .LVU188
	adds	r0, r0, #98
.L38:
.LVL84:
	.loc 1 169 9 is_stmt 1 discriminator 3 view .LVU189
	.loc 1 169 30 is_stmt 0 discriminator 3 view .LVU190
	strb	r1, [r3]
	.loc 1 170 9 is_stmt 1 discriminator 3 view .LVU191
.LVL85:
	.loc 1 170 9 is_stmt 0 discriminator 3 view .LVU192
	adds	r3, r3, #1
.LVL86:
	.loc 1 168 5 discriminator 3 view .LVU193
	cmp	r0, r3
	bne	.L38
	.loc 1 172 5 is_stmt 1 view .LVU194
	.loc 1 172 26 is_stmt 0 view .LVU195
	movs	r3, #98
.LVL87:
	.loc 1 172 26 view .LVU196
	movs	r1, #20
	strb	r1, [r2, r3]
	.loc 1 173 5 is_stmt 1 view .LVU197
.LVL88:
	.loc 1 174 5 view .LVU198
	.loc 1 174 5 is_stmt 0 view .LVU199
	movs	r3, r2
	.loc 1 175 30 view .LVU200
	movs	r1, #0
	adds	r3, r3, #99
	adds	r2, r2, #149
.LVL89:
.L39:
	.loc 1 175 9 is_stmt 1 discriminator 3 view .LVU201
	.loc 1 175 30 is_stmt 0 discriminator 3 view .LVU202
	strb	r1, [r3]
	.loc 1 176 9 is_stmt 1 discriminator 3 view .LVU203
.LVL90:
	.loc 1 176 9 is_stmt 0 discriminator 3 view .LVU204
	adds	r3, r3, #1
.LVL91:
	.loc 1 174 5 discriminator 3 view .LVU205
	cmp	r3, r2
	bne	.L39
	.loc 1 178 1 view .LVU206
	@ sp needed
	bx	lr
.L44:
	.align	2
.L43:
	.word	LEDbuffer
	.word	LEDbuffer+50
	.cfi_endproc
.LFE9:
	.size	fillBufferWhite, .-fillBufferWhite
	.section	.text.dma1_channel2_3_isr,"ax",%progbits
	.align	1
	.p2align 2,,3
	.global	dma1_channel2_3_isr
	.syntax unified
	.code	16
	.thumb_func
	.fpu softvfp
	.type	dma1_channel2_3_isr, %function
dma1_channel2_3_isr:
.LFB10:
	.loc 1 180 32 is_stmt 1 view -0
	.cfi_startproc
	@ args = 0, pretend = 0, frame = 0
	@ frame_needed = 0, uses_anonymous_args = 0
	.loc 1 181 5 view .LVU208
	.loc 1 180 32 is_stmt 0 view .LVU209
	push	{r4, lr}
	.cfi_def_cfa_offset 8
	.cfi_offset 4, -8
	.cfi_offset 14, -4
	.loc 1 181 9 view .LVU210
	movs	r2, #2
	movs	r1, #2
	ldr	r0, .L51
	bl	dma_get_interrupt_flag
.LVL92:
	.loc 1 181 8 view .LVU211
	cmp	r0, #0
	bne	.L50
.L45:
	.loc 1 186 1 view .LVU212
	@ sp needed
	pop	{r4, pc}
.L50:
	.loc 1 182 9 is_stmt 1 view .LVU213
	movs	r2, #2
	movs	r1, #2
	ldr	r0, .L51
	bl	dma_clear_interrupt_flags
.LVL93:
	.loc 1 184 9 view .LVU214
	movs	r0, #8
	bl	led_toggle
.LVL94:
	.loc 1 186 1 is_stmt 0 view .LVU215
	b	.L45
.L52:
	.align	2
.L51:
	.word	1073872896
	.cfi_endproc
.LFE10:
	.size	dma1_channel2_3_isr, .-dma1_channel2_3_isr
	.section	.bss.LEDColor,"aw",%nobits
	.align	2
	.set	.LANCHOR0,. + 0
	.type	LEDColor, %object
	.size	LEDColor, 6
LEDColor:
	.space	6
	.section	.bss.LEDbuffer,"aw",%nobits
	.align	2
	.type	LEDbuffer, %object
	.size	LEDbuffer, 149
LEDbuffer:
	.space	149
	.text
.Letext0:
	.file 2 "/home/a.malinowsk2/Programs/gcc-arm-none-eabi-8-2018-q4-major/arm-none-eabi/include/machine/_default_types.h"
	.file 3 "/home/a.malinowsk2/Programs/gcc-arm-none-eabi-8-2018-q4-major/arm-none-eabi/include/sys/_stdint.h"
	.file 4 "../libopencm3/include/libopencm3/stm32/f0/rcc.h"
	.file 5 "../libopencm3/include/libopencm3/stm32/common/timer_common_all.h"
	.file 6 "../include/leds.h"
	.file 7 "/home/a.malinowsk2/Programs/gcc-arm-none-eabi-8-2018-q4-major/arm-none-eabi/include/sys/lock.h"
	.file 8 "/home/a.malinowsk2/Programs/gcc-arm-none-eabi-8-2018-q4-major/arm-none-eabi/include/sys/_types.h"
	.file 9 "/home/a.malinowsk2/Programs/gcc-arm-none-eabi-8-2018-q4-major/lib/gcc/arm-none-eabi/8.2.1/include/stddef.h"
	.file 10 "/home/a.malinowsk2/Programs/gcc-arm-none-eabi-8-2018-q4-major/arm-none-eabi/include/sys/reent.h"
	.file 11 "../libopencm3/include/libopencm3/stm32/common/dma_common_l1f013.h"
	.file 12 "../libopencm3/include/libopencm3/cm3/nvic.h"
	.file 13 "../libopencm3/include/libopencm3/stm32/common/gpio_common_f234.h"
	.file 14 "../libopencm3/include/libopencm3/stm32/common/rcc_common_all.h"
	.file 15 "<built-in>"