	.cpu cortex-m0
	.eabi_attribute 20, 1
	.eabi_attribute 21, 1
	.eabi_attribute 23, 3
	.eabi_attribute 24, 1
	.eabi_attribute 25, 1
	.eabi_attribute 26, 1
	.eabi_attribute 30, 2
	.eabi_attribute 34, 0
	.eabi_attribute 18, 4
	.file	"xprintf.c"
	.text
.Ltext0:
	.cfi_sections	.debug_frame
	.section	.text.xputc,"ax",%progbits
	.align	1
	.p2align 2,,3
	.global	xputc
	.arch armv6s-m
	.syntax unified
	.code	16
	.thumb_func
	.fpu softvfp
	.type	xputc, %function
xputc:
.LVL0:
.LFB0:
	.file 1 "xprintf.c"
	.loc 1 27 1 view -0
	.cfi_startproc
	@ args = 0, pretend = 0, frame = 0
	@ frame_needed = 0, uses_anonymous_args = 0
	.loc 1 28 2 view .LVU1
	.loc 1 27 1 is_stmt 0 view .LVU2
	push	{r4, lr}
	.cfi_def_cfa_offset 8
	.cfi_offset 4, -8
	.cfi_offset 14, -4
	.loc 1 27 1 view .LVU3
	movs	r4, r0
	.loc 1 28 5 view .LVU4
	cmp	r0, #10
	beq	.L9
.LVL1:
.L2:
	.loc 1 30 2 is_stmt 1 view .LVU5
	.loc 1 30 6 is_stmt 0 view .LVU6
	ldr	r2, .L10
	ldr	r3, [r2]
	.loc 1 30 5 view .LVU7
	cmp	r3, #0
	beq	.L3
	.loc 1 31 3 is_stmt 1 view .LVU8
	.loc 1 31 10 is_stmt 0 view .LVU9
	adds	r1, r3, #1
	str	r1, [r2]
	.loc 1 31 13 view .LVU10
	strb	r4, [r3]
	.loc 1 32 3 is_stmt 1 view .LVU11
.L1:
	.loc 1 36 1 is_stmt 0 view .LVU12
	@ sp needed
	pop	{r4, pc}
.L3:
.LVL2:
.LBB8:
.LBI8:
	.loc 1 26 6 is_stmt 1 view .LVU13
.LBB9:
	.loc 1 35 2 view .LVU14
	.loc 1 35 6 is_stmt 0 view .LVU15
	ldr	r3, .L10+4
	ldr	r3, [r3]
	.loc 1 35 5 view .LVU16
	cmp	r3, #0
	beq	.L1
	.loc 1 35 17 is_stmt 1 view .LVU17
	movs	r0, r4
	blx	r3
.LVL3:
	b	.L1
.LVL4:
.L9:
	.loc 1 35 17 is_stmt 0 view .LVU18
.LBE9:
.LBE8:
	.loc 1 28 22 is_stmt 1 discriminator 1 view .LVU19
	movs	r0, #13
.LVL5:
	.loc 1 28 22 is_stmt 0 discriminator 1 view .LVU20
	bl	xputc
.LVL6:
	b	.L2
.L11:
	.align	2
.L10:
	.word	.LANCHOR0
	.word	.LANCHOR1
	.cfi_endproc
.LFE0:
	.size	xputc, .-xputc
	.global	__aeabi_uidivmod
	.section	.text.xvprintf,"ax",%progbits
	.align	1
	.p2align 2,,3
	.syntax unified
	.code	16
	.thumb_func
	.fpu softvfp
	.type	xvprintf, %function
xvprintf:
.LVL7:
.LFB3:
	.loc 1 92 1 is_stmt 1 view -0
	.cfi_startproc
	@ args = 0, pretend = 0, frame = 24
	@ frame_needed = 0, uses_anonymous_args = 0
	.loc 1 92 1 is_stmt 0 view .LVU22
	push	{r4, r5, r6, r7, lr}
	.cfi_def_cfa_offset 20
	.cfi_offset 4, -20
	.cfi_offset 5, -16
	.cfi_offset 6, -12
	.cfi_offset 7, -8
	.cfi_offset 14, -4
	mov	r6, r9
	mov	lr, fp
	mov	r7, r10
	mov	r5, r8
	push	{r5, r6, r7, lr}
	.cfi_def_cfa_offset 36
	.cfi_offset 8, -36
	.cfi_offset 9, -32
	.cfi_offset 10, -28
	.cfi_offset 11, -24
	movs	r6, r0
	sub	sp, sp, #28
	.cfi_def_cfa_offset 64
.LVL8:
	.loc 1 92 1 view .LVU23
	str	r1, [sp]
.LVL9:
.L13:
	.loc 1 93 2 is_stmt 1 view .LVU24
	.loc 1 94 2 view .LVU25
	.loc 1 95 2 view .LVU26
	.loc 1 98 2 view .LVU27
	.loc 1 99 3 view .LVU28
	.loc 1 99 5 is_stmt 0 view .LVU29
	ldrb	r0, [r6]
.LVL10:
	.loc 1 100 3 is_stmt 1 view .LVU30
	.loc 1 100 6 is_stmt 0 view .LVU31
	cmp	r0, #0
	beq	.L12
.LVL11:
.L107:
	.loc 1 101 3 is_stmt 1 view .LVU32
	.loc 1 101 6 is_stmt 0 view .LVU33
	cmp	r0, #37
	beq	.L15
	.loc 1 99 11 view .LVU34
	adds	r6, r6, #1
	.loc 1 102 4 is_stmt 1 view .LVU35
	bl	xputc
.LVL12:
	.loc 1 102 14 view .LVU36
	.loc 1 93 2 view .LVU37
	.loc 1 94 2 view .LVU38
	.loc 1 95 2 view .LVU39
	.loc 1 98 2 view .LVU40
	.loc 1 99 3 view .LVU41
	.loc 1 99 5 is_stmt 0 view .LVU42
	ldrb	r0, [r6]
.LVL13:
	.loc 1 100 3 is_stmt 1 view .LVU43
	.loc 1 100 6 is_stmt 0 view .LVU44
	cmp	r0, #0
	bne	.L107
.LVL14:
.L12:
	.loc 1 162 1 view .LVU45
	add	sp, sp, #28
.LVL15:
	.loc 1 162 1 view .LVU46
	@ sp needed
	pop	{r2, r3, r4, r5}
	mov	r8, r2
	mov	r9, r3
	mov	r10, r4
	mov	fp, r5
	pop	{r4, r5, r6, r7, pc}
.LVL16:
.L15:
	.loc 1 104 3 is_stmt 1 view .LVU47
	.loc 1 105 3 view .LVU48
	.loc 1 105 5 is_stmt 0 view .LVU49
	ldrb	r3, [r6, #1]
.LVL17:
	.loc 1 106 3 is_stmt 1 view .LVU50
	.loc 1 106 6 is_stmt 0 view .LVU51
	cmp	r3, #48
	bne	.LCB175
	b	.L108	@long jump
.LCB175:
	.loc 1 109 4 is_stmt 1 view .LVU52
	.loc 1 109 7 is_stmt 0 view .LVU53
	cmp	r3, #45
	bne	.LCB178
	b	.L19	@long jump
.LCB178:
	.loc 1 104 5 view .LVU54
	movs	r1, #0
.LVL18:
	.loc 1 104 5 view .LVU55
	mov	fp, r1
	.loc 1 105 11 view .LVU56
	adds	r2, r6, #2
.LVL19:
.L18:
	.loc 1 113 3 is_stmt 1 view .LVU57
	.loc 1 113 3 is_stmt 0 view .LVU58
	movs	r1, r3
	subs	r1, r1, #48
	cmp	r1, #9
	bls	.LCB200
	b	.L61	@long jump
.LCB200:
.L115:
	.loc 1 113 10 view .LVU59
	movs	r5, #0
	movs	r1, r3
.LVL20:
.L21:
	.loc 1 114 4 is_stmt 1 discriminator 3 view .LVU60
	.loc 1 114 10 is_stmt 0 discriminator 3 view .LVU61
	lsls	r3, r5, #2
	adds	r3, r3, r5
	lsls	r3, r3, #1
	.loc 1 114 15 discriminator 3 view .LVU62
	adds	r3, r3, r1
	.loc 1 113 39 discriminator 3 view .LVU63
	ldrb	r1, [r2]
.LVL21:
	.loc 1 114 6 discriminator 3 view .LVU64
	subs	r3, r3, #48
	movs	r5, r3
.LVL22:
	.loc 1 113 3 discriminator 3 view .LVU65
	movs	r3, r1
.LVL23:
	.loc 1 113 3 discriminator 3 view .LVU66
	adds	r6, r2, #1
.LVL24:
	.loc 1 113 3 discriminator 3 view .LVU67
	subs	r3, r3, #48
	movs	r2, r6
	cmp	r3, #9
	bls	.L21
	movs	r3, r1
.LVL25:
.L20:
	.loc 1 115 3 is_stmt 1 view .LVU68
	.loc 1 115 16 is_stmt 0 view .LVU69
	movs	r2, r3
.LVL26:
	.loc 1 115 16 view .LVU70
	movs	r1, #32
	bics	r2, r1
	cmp	r2, #76
	bne	.L22
	.loc 1 116 4 is_stmt 1 view .LVU71
	.loc 1 116 6 is_stmt 0 view .LVU72
	mov	r3, fp
	subs	r2, r2, #72
	orrs	r3, r2
	mov	fp, r3
.LVL27:
	.loc 1 116 12 is_stmt 1 view .LVU73
	.loc 1 116 14 is_stmt 0 view .LVU74
	ldrb	r3, [r6]
.LVL28:
	.loc 1 116 20 view .LVU75
	adds	r6, r6, #1
.LVL29:
.L22:
	.loc 1 118 3 is_stmt 1 view .LVU76
	.loc 1 118 6 is_stmt 0 view .LVU77
	cmp	r3, #0
	beq	.L12
	.loc 1 119 3 is_stmt 1 view .LVU78
.LVL30:
	.loc 1 120 3 view .LVU79
	movs	r1, r3
	.loc 1 120 6 is_stmt 0 view .LVU80
	cmp	r3, #96
	bls	.L23
	.loc 1 120 17 is_stmt 1 discriminator 1 view .LVU81
	.loc 1 120 19 is_stmt 0 discriminator 1 view .LVU82
	subs	r1, r1, #32
	uxtb	r1, r1
.LVL31:
.L23:
	.loc 1 121 3 is_stmt 1 view .LVU83
	movs	r2, r1
	subs	r2, r2, #66
	uxtb	r2, r2
	cmp	r2, #22
	bls	.LCB300
	b	.L24	@long jump
.LCB300:
	ldr	r0, .L116
	lsls	r2, r2, #2
	ldr	r2, [r0, r2]
	mov	pc, r2
	.section	.rodata.xvprintf,"a",%progbits
	.align	2
.L26:
	.word	.L31
	.word	.L30
	.word	.L27
	.word	.L24
	.word	.L24
	.word	.L24
	.word	.L24
	.word	.L24
	.word	.L24
	.word	.L24
	.word	.L24
	.word	.L24
	.word	.L24
	.word	.L29
	.word	.L24
	.word	.L24
	.word	.L24
	.word	.L28
	.word	.L24
	.word	.L27
	.word	.L24
	.word	.L24
	.word	.L25
	.section	.text.xvprintf
.L28:
	.loc 1 123 4 view .LVU84
	.loc 1 123 6 is_stmt 0 view .LVU85
	ldr	r3, [sp]
.LVL32:
	.loc 1 123 6 view .LVU86
	ldmia	r3!, {r2}
.LVL33:
	.loc 1 123 6 view .LVU87
	mov	r8, r2
	mov	r9, r3
	.loc 1 124 4 is_stmt 1 view .LVU88
.LVL34:
	.loc 1 124 17 is_stmt 0 view .LVU89
	ldrb	r0, [r2]
	mov	r3, fp
.LVL35:
	.loc 1 124 17 view .LVU90
	movs	r2, #2
	ands	r2, r3
	.loc 1 124 4 view .LVU91
	cmp	r0, #0
	bne	.LCB328
	b	.L32	@long jump
.LCB328:
.LVL36:
	.loc 1 124 11 view .LVU92
	movs	r4, #0
	mov	r1, r8
.LVL37:
	.loc 1 124 11 view .LVU93
	b	.L33
.LVL38:
.L63:
	.loc 1 124 23 view .LVU94
	movs	r4, r7
.LVL39:
.L33:
	.loc 1 124 27 is_stmt 1 discriminator 3 view .LVU95
	.loc 1 124 23 is_stmt 0 discriminator 3 view .LVU96
	adds	r7, r4, #1
.LVL40:
	.loc 1 124 17 discriminator 3 view .LVU97
	ldrb	r3, [r1, r7]
	.loc 1 124 4 discriminator 3 view .LVU98
	cmp	r3, #0
	bne	.L63
	adds	r3, r4, #2
	mov	r8, r1
	mov	r10, r3
	.loc 1 125 10 view .LVU99
	cmp	r2, #0
	beq	.LCB355
	b	.L76	@long jump
.LCB355:
	adds	r4, r4, #3
.LVL41:
	.loc 1 125 20 view .LVU100
	cmp	r7, r5
	bcc	.LCB359
	b	.L109	@long jump
.LCB359:
.LVL42:
.L104:
	.loc 1 125 20 view .LVU101
	mov	r4, r10
	b	.L35
.LVL43:
.L64:
	.loc 1 125 24 view .LVU102
	movs	r4, r7
.LVL44:
.L35:
	.loc 1 125 32 is_stmt 1 discriminator 3 view .LVU103
	movs	r0, #32
	bl	xputc
.LVL45:
	.loc 1 125 24 is_stmt 0 discriminator 3 view .LVU104
	adds	r7, r4, #1
.LVL46:
	.loc 1 125 20 discriminator 3 view .LVU105
	cmp	r5, r4
	bhi	.L64
	mov	r3, r8
	ldrb	r0, [r3]
	.loc 1 126 4 is_stmt 1 view .LVU106
.LBB10:
.LBI10:
	.loc 1 44 6 view .LVU107
.LBB11:
	.loc 1 48 2 view .LVU108
.LVL47:
	.loc 1 48 2 is_stmt 0 view .LVU109
	adds	r4, r4, #2
	.loc 1 48 8 view .LVU110
	cmp	r0, #0
	beq	.L36
	.loc 1 48 8 view .LVU111
	movs	r3, r4
.LVL48:
	.loc 1 48 8 view .LVU112
	mov	r4, r8
	mov	r8, r3
.LVL49:
.L37:
	.loc 1 49 3 is_stmt 1 view .LVU113
	.loc 1 49 13 is_stmt 0 view .LVU114
	adds	r4, r4, #1
.LVL50:
	.loc 1 49 3 view .LVU115
	bl	xputc
.LVL51:
	.loc 1 48 9 view .LVU116
	ldrb	r0, [r4]
	.loc 1 48 8 view .LVU117
	cmp	r0, #0
	bne	.L37
	mov	r4, r8
.LVL52:
.L36:
	.loc 1 48 8 view .LVU118
.LBE11:
.LBE10:
	.loc 1 127 10 view .LVU119
	cmp	r5, r7
	bhi	.L38
	b	.L65
.LVL53:
.L66:
	.loc 1 127 12 view .LVU120
	movs	r4, r3
.LVL54:
.L38:
	.loc 1 127 20 is_stmt 1 discriminator 2 view .LVU121
	movs	r0, #32
	bl	xputc
.LVL55:
	.loc 1 127 12 is_stmt 0 discriminator 2 view .LVU122
	adds	r3, r4, #1
.LVL56:
	.loc 1 127 10 discriminator 2 view .LVU123
	cmp	r5, r4
	bhi	.L66
.LVL57:
.L65:
	.loc 1 123 6 view .LVU124
	mov	r3, r9
	str	r3, [sp]
	b	.L13
.LVL58:
.L27:
	.loc 1 145 3 is_stmt 1 view .LVU125
	.loc 1 145 34 is_stmt 0 view .LVU126
	movs	r4, #4
	mov	r7, fp
	ldr	r0, [sp]
	adds	r2, r0, #4
	tst	r4, r7
	bne	.LCB462
	b	.L39	@long jump
.LCB462:
.LVL59:
	.loc 1 145 16 view .LVU127
	ldr	r7, [r0]
.LVL60:
	.loc 1 145 34 view .LVU128
	movs	r0, r7
.LVL61:
	.loc 1 146 3 is_stmt 1 view .LVU129
	.loc 1 146 6 is_stmt 0 view .LVU130
	cmp	r1, #68
	beq	.LCB471
	b	.L110	@long jump
.LCB471:
	.loc 1 146 16 discriminator 1 view .LVU131
	cmp	r0, #0
	bge	.LCB475
	b	.L111	@long jump
.LCB475:
.LVL62:
.L68:
	.loc 1 146 16 discriminator 1 view .LVU132
	str	r2, [sp]
	movs	r2, #0
.LVL63:
	.loc 1 146 16 discriminator 1 view .LVU133
	str	r2, [sp, #4]
	adds	r2, r2, #10
	mov	r9, r2
	b	.L41
.LVL64:
.L31:
	.loc 1 145 3 is_stmt 1 view .LVU134
	.loc 1 145 34 is_stmt 0 view .LVU135
	movs	r1, #4
.LVL65:
	.loc 1 145 34 view .LVU136
	mov	r0, fp
	ldr	r2, [sp]
	adds	r2, r2, #4
	tst	r1, r0
	bne	.LCB503
	b	.L112	@long jump
.LCB503:
.LVL66:
	.loc 1 132 6 view .LVU137
	movs	r1, #2
	mov	r9, r1
	b	.L54
.LVL67:
.L30:
	.loc 1 130 4 is_stmt 1 view .LVU138
	.loc 1 130 15 is_stmt 0 view .LVU139
	ldr	r4, [sp]
.LVL68:
	.loc 1 130 4 view .LVU140
	ldmia	r4!, {r0}
.LVL69:
	.loc 1 130 4 view .LVU141
	uxtb	r0, r0
	bl	xputc
.LVL70:
	.loc 1 130 34 is_stmt 1 view .LVU142
	.loc 1 130 15 is_stmt 0 view .LVU143
	str	r4, [sp]
.LVL71:
	.loc 1 130 31 view .LVU144
	b	.L13
.LVL72:
.L29:
	.loc 1 145 3 is_stmt 1 view .LVU145
	.loc 1 145 34 is_stmt 0 view .LVU146
	movs	r1, #4
.LVL73:
	.loc 1 145 34 view .LVU147
	mov	r0, fp
	ldr	r2, [sp]
	adds	r2, r2, #4
	tst	r1, r0
	beq	.LCB542
	b	.L60	@long jump
.LCB542:
.LVL74:
	.loc 1 134 6 view .LVU148
	adds	r1, r1, #4
	mov	r9, r1
.LVL75:
.L54:
	.loc 1 145 34 view .LVU149
	ldr	r1, [sp]
	ldr	r7, [r1]
.LVL76:
	.loc 1 146 3 is_stmt 1 view .LVU150
	.loc 1 145 34 is_stmt 0 view .LVU151
	str	r2, [sp]
.LVL77:
.L106:
	.loc 1 145 34 view .LVU152
	movs	r2, #0
	str	r2, [sp, #4]
.L41:
.LVL78:
	.loc 1 150 3 is_stmt 1 view .LVU153
	.loc 1 150 3 is_stmt 0 view .LVU154
	movs	r2, #7
	cmp	r3, #120
	bne	.L44
	.loc 1 150 3 view .LVU155
	movs	r2, #39
.L44:
	uxtb	r3, r2
.LVL79:
	.loc 1 150 3 view .LVU156
	mov	r8, r3
	.loc 1 150 5 view .LVU157
	movs	r3, #0
	mov	r4, r9
	mov	r9, r6
	mov	r6, r8
.LVL80:
	.loc 1 150 5 view .LVU158
	mov	r8, r5
	movs	r5, r3
	b	.L47
.LVL81:
.L69:
	.loc 1 150 5 view .LVU159
	movs	r5, r2
.LVL82:
.L47:
	.loc 1 151 3 is_stmt 1 view .LVU160
	.loc 1 152 4 view .LVU161
	movs	r1, r4
	movs	r0, r7
	bl	__aeabi_uidivmod
.LVL83:
	.loc 1 152 6 is_stmt 0 view .LVU162
	uxtb	r3, r1
.LVL84:
	.loc 1 152 23 is_stmt 1 view .LVU163
	.loc 1 153 4 view .LVU164
	.loc 1 153 7 is_stmt 0 view .LVU165
	cmp	r1, #9
	bls	.L45
	.loc 1 153 15 is_stmt 1 discriminator 5 view .LVU166
	.loc 1 153 17 is_stmt 0 discriminator 5 view .LVU167
	adds	r3, r6, r3
.LVL85:
	.loc 1 153 17 discriminator 5 view .LVU168
	uxtb	r3, r3
.LVL86:
.L45:
	.loc 1 154 4 is_stmt 1 view .LVU169
	.loc 1 154 11 is_stmt 0 view .LVU170
	add	r1, sp, #8
	.loc 1 154 7 view .LVU171
	adds	r2, r5, #1
.LVL87:
	.loc 1 154 15 view .LVU172
	adds	r3, r3, #48
.LVL88:
	.loc 1 154 11 view .LVU173
	subs	r1, r1, #1
	strb	r3, [r1, r2]
	.loc 1 155 3 view .LVU174
	cmp	r7, r4
	bcs	.LCB639
	b	.L100	@long jump
.LCB639:
	.loc 1 152 25 discriminator 1 view .LVU175
	movs	r7, r0
	.loc 1 155 14 discriminator 1 view .LVU176
	cmp	r2, #16
	bne	.L69
	.loc 1 155 14 discriminator 1 view .LVU177
	movs	r3, #15
	mov	r5, r8
	movs	r4, r2
	mov	r6, r9
	mov	r10, r3
.LVL89:
.L46:
	.loc 1 156 3 is_stmt 1 view .LVU178
	add	r3, sp, #8
	mov	r8, r3
	.loc 1 156 6 is_stmt 0 view .LVU179
	ldr	r3, [sp, #4]
	cmp	r3, #0
	beq	.L48
	.loc 1 156 14 is_stmt 1 discriminator 1 view .LVU180
.LVL90:
	.loc 1 156 21 is_stmt 0 discriminator 1 view .LVU181
	movs	r3, #45
	mov	r2, r8
	strb	r3, [r2, r4]
	.loc 1 156 17 discriminator 1 view .LVU182
	mov	r4, r10
	adds	r4, r4, #2
.LVL91:
.L48:
	.loc 1 157 3 is_stmt 1 view .LVU183
	.loc 1 157 10 view .LVU184
	.loc 1 157 12 is_stmt 0 view .LVU185
	mov	r3, fp
	lsls	r2, r3, #31
	movs	r3, #16
	asrs	r2, r2, #31
	ands	r3, r2
	mov	r9, r3
	movs	r3, #32
	mov	ip, r3
	.loc 1 158 9 view .LVU186
	mov	r3, fp
	.loc 1 157 12 view .LVU187
	add	r9, r9, ip
.LVL92:
	.loc 1 158 3 is_stmt 1 view .LVU188
	.loc 1 158 3 is_stmt 0 view .LVU189
	adds	r7, r4, #1
	.loc 1 158 9 view .LVU190
	lsls	r3, r3, #30
	bmi	.L71
.LVL93:
	.loc 1 158 19 view .LVU191
	cmp	r4, r5
	bcs	.L113
	movs	r3, r4
	mov	r4, r9
.LVL94:
	.loc 1 158 19 view .LVU192
	mov	r9, r3
.LVL95:
	.loc 1 158 19 view .LVU193
	b	.L51
.LVL96:
.L72:
	.loc 1 158 19 view .LVU194
	movs	r7, r3
.LVL97:
.L51:
	.loc 1 158 31 is_stmt 1 discriminator 3 view .LVU195
	movs	r0, r4
	bl	xputc
.LVL98:
	.loc 1 158 23 is_stmt 0 discriminator 3 view .LVU196
	adds	r3, r7, #1
.LVL99:
	.loc 1 158 19 discriminator 3 view .LVU197
	cmp	r5, r7
	bne	.L72
	mov	r4, r9
.LVL100:
	.loc 1 158 19 discriminator 3 view .LVU198
	mov	r9, r3
.LVL101:
	.loc 1 158 19 discriminator 3 view .LVU199
	adds	r7, r5, #2
.LVL102:
.L50:
	.loc 1 158 19 discriminator 3 view .LVU200
	subs	r4, r4, #1
.LVL103:
	.loc 1 158 19 discriminator 3 view .LVU201
	add	r4, r4, r8
.LVL104:
	.loc 1 158 19 discriminator 3 view .LVU202
	b	.L52
.LVL105:
.L73:
	.loc 1 158 19 discriminator 3 view .LVU203
	movs	r4, r3
.LVL106:
.L52:
	.loc 1 159 3 is_stmt 1 discriminator 1 view .LVU204
	.loc 1 159 6 discriminator 1 view .LVU205
	.loc 1 159 6 is_stmt 0 discriminator 1 view .LVU206
	ldrb	r0, [r4]
	bl	xputc
.LVL107:
	subs	r3, r4, #1
	.loc 1 159 3 discriminator 1 view .LVU207
	cmp	r8, r4
	bne	.L73
.LVL108:
	.loc 1 160 9 view .LVU208
	cmp	r9, r5
	bcc	.L53
	b	.L13
.LVL109:
.L74:
	.loc 1 160 11 view .LVU209
	movs	r7, r3
.LVL110:
.L53:
	.loc 1 160 19 is_stmt 1 discriminator 2 view .LVU210
	movs	r0, #32
.LVL111:
	.loc 1 160 19 is_stmt 0 discriminator 2 view .LVU211
	bl	xputc
.LVL112:
	.loc 1 160 11 discriminator 2 view .LVU212
	adds	r3, r7, #1
.LVL113:
	.loc 1 160 9 discriminator 2 view .LVU213
	cmp	r5, r7
	bhi	.L74
	b	.L13
.LVL114:
.L25:
	.loc 1 145 3 is_stmt 1 view .LVU214
	.loc 1 145 34 is_stmt 0 view .LVU215
	movs	r1, #4
.LVL115:
	.loc 1 145 34 view .LVU216
	mov	r0, fp
	ldr	r2, [sp]
	adds	r2, r2, #4
	tst	r1, r0
	beq	.L114
.LVL116:
	.loc 1 139 6 view .LVU217
	movs	r1, #16
	mov	r9, r1
	b	.L54
.LVL117:
.L24:
	.loc 1 141 4 is_stmt 1 view .LVU218
	movs	r0, r3
	bl	xputc
.LVL118:
	.loc 1 141 14 view .LVU219
	.loc 1 141 4 is_stmt 0 view .LVU220
	b	.L13
.LVL119:
.L108:
	.loc 1 107 4 is_stmt 1 view .LVU221
	.loc 1 107 11 view .LVU222
	.loc 1 107 6 is_stmt 0 view .LVU223
	movs	r1, #1
.LVL120:
	.loc 1 107 13 view .LVU224
	ldrb	r3, [r6, #2]
.LVL121:
	.loc 1 107 6 view .LVU225
	mov	fp, r1
	.loc 1 113 3 view .LVU226
	movs	r1, r3
	subs	r1, r1, #48
	.loc 1 107 19 view .LVU227
	adds	r2, r6, #3
.LVL122:
	.loc 1 113 3 is_stmt 1 view .LVU228
	.loc 1 113 3 is_stmt 0 view .LVU229
	cmp	r1, #9
	bhi	.LCB856
	b	.L115	@long jump
.LCB856:
.L61:
	.loc 1 113 3 view .LVU230
	movs	r6, r2
	.loc 1 113 10 view .LVU231
	movs	r5, #0
	b	.L20
.LVL123:
.L19:
	.loc 1 110 5 is_stmt 1 view .LVU232
	.loc 1 110 12 view .LVU233
	.loc 1 110 7 is_stmt 0 view .LVU234
	movs	r1, #2
.LVL124:
	.loc 1 110 20 view .LVU235
	adds	r2, r6, #3
.LVL125:
	.loc 1 110 14 view .LVU236
	ldrb	r3, [r6, #2]
.LVL126:
	.loc 1 110 7 view .LVU237
	mov	fp, r1
	b	.L18
.LVL127:
.L112:
	.loc 1 132 6 view .LVU238
	subs	r1, r1, #2
	mov	r9, r1
	b	.L54
.LVL128:
.L114:
	.loc 1 139 6 view .LVU239
	adds	r1, r1, #12
	mov	r9, r1
	b	.L54
.LVL129:
.L39:
	.loc 1 145 34 discriminator 2 view .LVU240
	cmp	r1, #68
	bne	.L67
.LVL130:
	.loc 1 145 56 view .LVU241
	ldr	r1, [sp]
.LVL131:
	.loc 1 145 56 view .LVU242
	ldr	r0, [r1]
	.loc 1 145 34 view .LVU243
	subs	r7, r0, #0
.LVL132:
	.loc 1 146 3 is_stmt 1 view .LVU244
	.loc 1 146 16 is_stmt 0 view .LVU245
	blt	.LCB922
	b	.L68	@long jump
.LCB922:
.L111:
	.loc 1 147 4 is_stmt 1 view .LVU246
	.loc 1 148 6 is_stmt 0 view .LVU247
	mov	r0, fp
.LVL133:
	.loc 1 148 6 view .LVU248
	movs	r1, #8
	str	r2, [sp]
	movs	r2, #8
.LVL134:
	.loc 1 148 6 view .LVU249
	orrs	r0, r1
	str	r2, [sp, #4]
	adds	r2, r2, #2
	.loc 1 147 6 view .LVU250
	rsbs	r7, r7, #0
.LVL135:
	.loc 1 148 4 is_stmt 1 view .LVU251
	.loc 1 148 6 is_stmt 0 view .LVU252
	mov	fp, r0
.LVL136:
	.loc 1 148 6 view .LVU253
	mov	r9, r2
	b	.L41
.LVL137:
.L60:
	.loc 1 145 34 view .LVU254
	ldr	r1, [sp]
	str	r2, [sp]
.LVL138:
	.loc 1 134 6 view .LVU255
	movs	r2, #8
	.loc 1 145 34 view .LVU256
	ldr	r7, [r1]
.LVL139:
	.loc 1 146 3 is_stmt 1 view .LVU257
	.loc 1 134 6 is_stmt 0 view .LVU258
	mov	r9, r2
	b	.L106
.LVL140:
.L100:
	.loc 1 134 6 view .LVU259
	mov	r10, r5
	movs	r4, r2
	mov	r5, r8
	mov	r6, r9
	b	.L46
.LVL141:
.L71:
	.loc 1 158 9 view .LVU260
	mov	r9, r4
.LVL142:
	.loc 1 158 9 view .LVU261
	b	.L50
.LVL143:
.L113:
	.loc 1 158 23 view .LVU262
	mov	r9, r7
.LVL144:
	.loc 1 158 19 view .LVU263
	adds	r7, r4, #2
.LVL145:
	.loc 1 158 19 view .LVU264
	b	.L50
.LVL146:
.L32:
	.loc 1 125 10 view .LVU265
	movs	r4, #1
	.loc 1 124 11 view .LVU266
	movs	r7, #0
	.loc 1 125 10 view .LVU267
	cmp	r2, #0
	beq	.LCB1014
	b	.L36	@long jump
.LCB1014:
.LVL147:
	.loc 1 125 20 view .LVU268
	movs	r3, #1
.LVL148:
	.loc 1 125 20 view .LVU269
	mov	r10, r3
	cmp	r5, #0
	beq	.LCB1020
	b	.L104	@long jump
.LCB1020:
	b	.L65
.LVL149:
.L109:
	.loc 1 125 20 view .LVU270
	movs	r7, r3
.LVL150:
	.loc 1 125 20 view .LVU271
	movs	r3, r4
	movs	r4, r1
.LVL151:
	.loc 1 125 20 view .LVU272
	mov	r8, r3
	b	.L37
.LVL152:
.L76:
	.loc 1 125 10 view .LVU273
	mov	r4, r8
	mov	r8, r10
	b	.L37
.LVL153:
.L110:
	.loc 1 125 10 view .LVU274
	str	r2, [sp]
	.loc 1 137 6 view .LVU275
	movs	r2, #10
.LVL154:
	.loc 1 137 6 view .LVU276
	mov	r9, r2
.LVL155:
	.loc 1 137 6 view .LVU277
	b	.L106
.LVL156:
.L67:
	.loc 1 137 6 view .LVU278
	movs	r1, #10
.LVL157:
	.loc 1 137 6 view .LVU279
	mov	r9, r1
.LVL158:
	.loc 1 137 6 view .LVU280
	b	.L54
.L117:
	.align	2
.L116:
	.word	.L26
	.cfi_endproc
.LFE3:
	.size	xvprintf, .-xvprintf
	.section	.text.xgets.part.1,"ax",%progbits
	.align	1
	.p2align 2,,3
	.syntax unified
	.code	16
	.thumb_func
	.fpu softvfp
	.type	xgets.part.1, %function
xgets.part.1:
.LVL159:
.LFB12:
	.loc 1 277 5 is_stmt 1 view -0
	.cfi_startproc
	@ args = 0, pretend = 0, frame = 0
	@ frame_needed = 0, uses_anonymous_args = 0
	.loc 1 277 5 is_stmt 0 view .LVU282
	push	{r4, r5, r6, r7, lr}
	.cfi_def_cfa_offset 20
	.cfi_offset 4, -20
	.cfi_offset 5, -16
	.cfi_offset 6, -12
	.cfi_offset 7, -8
	.cfi_offset 14, -4
	mov	lr, r8
	movs	r7, r0
	.loc 1 287 4 view .LVU283
	movs	r4, #0
	.loc 1 277 5 view .LVU284
	push	{lr}
	.cfi_def_cfa_offset 24
	.cfi_offset 8, -24
	ldr	r5, .L132
	.loc 1 297 27 view .LVU285
	subs	r6, r1, #1
.LVL160:
.L119:
	.loc 1 288 2 is_stmt 1 view .LVU286
	.loc 1 289 3 view .LVU287
	.loc 1 289 7 is_stmt 0 view .LVU288
	ldr	r3, [r5]
	blx	r3
.LVL161:
	.loc 1 290 3 is_stmt 1 view .LVU289
	.loc 1 290 6 is_stmt 0 view .LVU290
	cmp	r0, #0
	beq	.L118
.L131:
	.loc 1 291 3 is_stmt 1 view .LVU291
	.loc 1 291 6 is_stmt 0 view .LVU292
	cmp	r0, #13
	beq	.L121
	.loc 1 292 3 is_stmt 1 view .LVU293
	.loc 1 292 6 is_stmt 0 view .LVU294
	cmp	r0, #8
	beq	.L130
	.loc 1 297 3 is_stmt 1 view .LVU295
	.loc 1 297 6 is_stmt 0 view .LVU296
	cmp	r0, #31
	ble	.L119
	.loc 1 297 16 view .LVU297
	cmp	r4, r6
	bge	.L119
	.loc 1 298 4 is_stmt 1 view .LVU298
	.loc 1 298 10 is_stmt 0 view .LVU299
	adds	r3, r4, #1
	mov	r8, r3
.LVL162:
	.loc 1 298 14 view .LVU300
	strb	r0, [r7, r4]
	.loc 1 299 4 is_stmt 1 view .LVU301
	.loc 1 299 11 view .LVU302
	bl	xputc
.LVL163:
	.loc 1 289 7 is_stmt 0 view .LVU303
	ldr	r3, [r5]
	.loc 1 298 10 view .LVU304
	mov	r4, r8
	.loc 1 288 2 is_stmt 1 view .LVU305
	.loc 1 289 3 view .LVU306
	.loc 1 289 7 is_stmt 0 view .LVU307
	blx	r3
.LVL164:
	.loc 1 290 3 is_stmt 1 view .LVU308
	.loc 1 290 6 is_stmt 0 view .LVU309
	cmp	r0, #0
	bne	.L131
.LVL165:
.L118:
	.loc 1 305 1 view .LVU310
	@ sp needed
.LVL166:
.LVL167:
.LVL168:
	.loc 1 305 1 view .LVU311
	pop	{r2}
	mov	r8, r2
	pop	{r4, r5, r6, r7, pc}
.LVL169:
.L130:
	.loc 1 292 17 view .LVU312
	cmp	r4, #0
	beq	.L119
	.loc 1 293 4 is_stmt 1 view .LVU313
	.loc 1 293 5 is_stmt 0 view .LVU314
	subs	r4, r4, #1
.LVL170:
	.loc 1 294 4 is_stmt 1 view .LVU315
	.loc 1 294 11 view .LVU316
	bl	xputc
.LVL171:
	.loc 1 295 4 view .LVU317
	b	.L119
.LVL172:
.L121:
	.loc 1 302 2 view .LVU318
	.loc 1 302 10 is_stmt 0 view .LVU319
	movs	r3, #0
	.loc 1 303 9 view .LVU320
	movs	r0, #10
.LVL173:
	.loc 1 302 10 view .LVU321
	strb	r3, [r7, r4]
	.loc 1 303 2 is_stmt 1 view .LVU322
	.loc 1 303 9 view .LVU323
	bl	xputc
.LVL174:
	.loc 1 304 2 view .LVU324
	.loc 1 304 9 is_stmt 0 view .LVU325
	movs	r0, #1
	b	.L118
.L133:
	.align	2
.L132:
	.word	.LANCHOR2
	.cfi_endproc
.LFE12:
	.size	xgets.part.1, .-xgets.part.1
	.section	.text.xputs,"ax",%progbits
	.align	1
	.p2align 2,,3
	.global	xputs
	.syntax unified
	.code	16
	.thumb_func
	.fpu softvfp
	.type	xputs, %function
xputs:
.LVL175:
.LFB1:
	.loc 1 47 1 is_stmt 1 view -0
	.cfi_startproc
	@ args = 0, pretend = 0, frame = 0
	@ frame_needed = 0, uses_anonymous_args = 0
	.loc 1 48 2 view .LVU327
	.loc 1 47 1 is_stmt 0 view .LVU328
	push	{r4, lr}
	.cfi_def_cfa_offset 8
	.cfi_offset 4, -8
	.cfi_offset 14, -4
	.loc 1 47 1 view .LVU329
	movs	r4, r0
	.loc 1 48 9 view .LVU330
	ldrb	r0, [r0]
.LVL176:
	.loc 1 48 8 view .LVU331
	cmp	r0, #0
	beq	.L134
.L136:
	.loc 1 49 3 is_stmt 1 view .LVU332
	.loc 1 49 13 is_stmt 0 view .LVU333
	adds	r4, r4, #1
.LVL177:
	.loc 1 49 3 view .LVU334
	bl	xputc
.LVL178:
	.loc 1 48 9 view .LVU335
	ldrb	r0, [r4]
	.loc 1 48 8 view .LVU336
	cmp	r0, #0
	bne	.L136
.L134:
	.loc 1 50 1 view .LVU337
	@ sp needed
.LVL179:
	.loc 1 50 1 view .LVU338
	pop	{r4, pc}
	.cfi_endproc
.LFE1:
	.size	xputs, .-xputs
	.section	.text.xfputs,"ax",%progbits
	.align	1
	.p2align 2,,3
	.global	xfputs
	.syntax unified
	.code	16
	.thumb_func
	.fpu softvfp
	.type	xfputs, %function
xfputs:
.LVL180:
.LFB2:
	.loc 1 57 1 is_stmt 1 view -0
	.cfi_startproc
	@ args = 0, pretend = 0, frame = 0
	@ frame_needed = 0, uses_anonymous_args = 0
	.loc 1 58 2 view .LVU340
	.loc 1 61 2 view .LVU341
	.loc 1 57 1 is_stmt 0 view .LVU342
	push	{r4, r5, r6, lr}
	.cfi_def_cfa_offset 16
	.cfi_offset 4, -16
	.cfi_offset 5, -12
	.cfi_offset 6, -8
	.cfi_offset 14, -4
	.loc 1 61 5 view .LVU343
	ldr	r5, .L148
	.loc 1 57 1 view .LVU344
	movs	r4, r1
	.loc 1 61 5 view .LVU345
	ldr	r6, [r5]
.LVL181:
	.loc 1 62 2 is_stmt 1 view .LVU346
	.loc 1 62 12 is_stmt 0 view .LVU347
	str	r0, [r5]
	.loc 1 63 2 is_stmt 1 view .LVU348
	.loc 1 63 9 is_stmt 0 view .LVU349
	ldrb	r0, [r1]
.LVL182:
	.loc 1 63 8 view .LVU350
	cmp	r0, #0
	beq	.L142
.LVL183:
.L143:
	.loc 1 64 3 is_stmt 1 view .LVU351
	.loc 1 64 13 is_stmt 0 view .LVU352
	adds	r4, r4, #1
.LVL184:
	.loc 1 64 3 view .LVU353
	bl	xputc
.LVL185:
	.loc 1 63 9 view .LVU354
	ldrb	r0, [r4]
	.loc 1 63 8 view .LVU355
	cmp	r0, #0
	bne	.L143
.L142:
	.loc 1 65 2 is_stmt 1 view .LVU356
	.loc 1 65 12 is_stmt 0 view .LVU357
	str	r6, [r5]
	.loc 1 66 1 view .LVU358
	@ sp needed
.LVL186:
.LVL187:
	.loc 1 66 1 view .LVU359
	pop	{r4, r5, r6, pc}
.L149:
	.align	2
.L148:
	.word	.LANCHOR1
	.cfi_endproc
.LFE2:
	.size	xfputs, .-xfputs
	.section	.text.xprintf,"ax",%progbits
	.align	1
	.p2align 2,,3
	.global	xprintf
	.syntax unified
	.code	16
	.thumb_func
	.fpu softvfp
	.type	xprintf, %function
xprintf:
.LVL188:
.LFB4:
	.loc 1 169 1 is_stmt 1 view -0
	.cfi_startproc
	@ args = 4, pretend = 16, frame = 8
	@ frame_needed = 0, uses_anonymous_args = 1
	.loc 1 170 2 view .LVU361
	.loc 1 173 1 view .LVU362
	.loc 1 169 1 is_stmt 0 view .LVU363
	push	{r0, r1, r2, r3}
	.cfi_def_cfa_offset 16
	push	{lr}
	.cfi_def_cfa_offset 20
	.cfi_offset 14, -20
	sub	sp, sp, #12
	.cfi_def_cfa_offset 32
	.loc 1 169 1 view .LVU364
	add	r1, sp, #16
	ldmia	r1!, {r0}
	.loc 1 173 1 view .LVU365
	str	r1, [sp, #4]
	.loc 1 174 2 is_stmt 1 view .LVU366
	bl	xvprintf
.LVL189:
	.loc 1 175 1 view .LVU367
	.loc 1 176 1 is_stmt 0 view .LVU368
	add	sp, sp, #12
	@ sp needed
	pop	{r3}
	add	sp, sp, #16
	bx	r3
	.cfi_endproc
.LFE4:
	.size	xprintf, .-xprintf
	.section	.text.xsprintf,"ax",%progbits
	.align	1
	.p2align 2,,3
	.global	xsprintf
	.syntax unified
	.code	16
	.thumb_func
	.fpu softvfp
	.type	xsprintf, %function
xsprintf:
.LVL190:
.LFB5:
	.loc 1 184 1 is_stmt 1 view -0
	.cfi_startproc
	@ args = 4, pretend = 12, frame = 8
	@ frame_needed = 0, uses_anonymous_args = 1
	.loc 1 185 2 view .LVU370
	.loc 1 188 2 view .LVU371
	.loc 1 184 1 is_stmt 0 view .LVU372
	push	{r1, r2, r3}
	.cfi_def_cfa_offset 12
	push	{r4, lr}
	.cfi_def_cfa_offset 20
	.cfi_offset 4, -20
	.cfi_offset 14, -16
	sub	sp, sp, #12
	.cfi_def_cfa_offset 32
	.loc 1 184 1 view .LVU373
	add	r1, sp, #20
	ldmia	r1!, {r3}
	.loc 1 188 9 view .LVU374
	ldr	r4, .L152
	.loc 1 190 1 view .LVU375
	str	r1, [sp, #4]
	.loc 1 188 9 view .LVU376
	str	r0, [r4]
	.loc 1 190 1 is_stmt 1 view .LVU377
	.loc 1 191 2 view .LVU378
	movs	r0, r3
.LVL191:
	.loc 1 191 2 is_stmt 0 view .LVU379
	bl	xvprintf
.LVL192:
	.loc 1 192 1 is_stmt 1 view .LVU380
	.loc 1 194 2 view .LVU381
	.loc 1 194 10 is_stmt 0 view .LVU382
	movs	r3, #0
	ldr	r2, [r4]
	.loc 1 195 9 view .LVU383
	str	r3, [r4]
	.loc 1 194 10 view .LVU384
	strb	r3, [r2]
	.loc 1 195 2 is_stmt 1 view .LVU385
	.loc 1 196 1 is_stmt 0 view .LVU386
	add	sp, sp, #12
	@ sp needed
	pop	{r4}
	pop	{r3}
	add	sp, sp, #12
	bx	r3
.L153:
	.align	2
.L152:
	.word	.LANCHOR0
	.cfi_endproc
.LFE5:
	.size	xsprintf, .-xsprintf
	.section	.text.xfprintf,"ax",%progbits
	.align	1
	.p2align 2,,3
	.global	xfprintf
	.syntax unified
	.code	16
	.thumb_func
	.fpu softvfp
	.type	xfprintf, %function
xfprintf:
.LVL193:
.LFB6:
	.loc 1 204 1 is_stmt 1 view -0
	.cfi_startproc
	@ args = 4, pretend = 12, frame = 8
	@ frame_needed = 0, uses_anonymous_args = 1
	.loc 1 205 2 view .LVU388
	.loc 1 206 2 view .LVU389
	.loc 1 209 2 view .LVU390
	.loc 1 204 1 is_stmt 0 view .LVU391
	push	{r1, r2, r3}
	.cfi_def_cfa_offset 12
	push	{r4, r5, lr}
	.cfi_def_cfa_offset 24
	.cfi_offset 4, -24
	.cfi_offset 5, -20
	.cfi_offset 14, -16
	sub	sp, sp, #8
	.cfi_def_cfa_offset 32
	.loc 1 204 1 view .LVU392
	add	r1, sp, #20
	.loc 1 209 5 view .LVU393
	ldr	r4, .L155
	.loc 1 204 1 view .LVU394
	ldmia	r1!, {r3}
	.loc 1 209 5 view .LVU395
	ldr	r5, [r4]
.LVL194:
	.loc 1 210 2 is_stmt 1 view .LVU396
	.loc 1 210 12 is_stmt 0 view .LVU397
	str	r0, [r4]
	.loc 1 212 1 is_stmt 1 view .LVU398
	.loc 1 213 2 is_stmt 0 view .LVU399
	movs	r0, r3
.LVL195:
	.loc 1 212 1 view .LVU400
	str	r1, [sp, #4]
	.loc 1 213 2 is_stmt 1 view .LVU401
	bl	xvprintf
.LVL196:
	.loc 1 214 1 view .LVU402
	.loc 1 216 2 view .LVU403
	.loc 1 216 12 is_stmt 0 view .LVU404
	str	r5, [r4]
	.loc 1 217 1 view .LVU405
	add	sp, sp, #8
	@ sp needed
.LVL197:
	.loc 1 217 1 view .LVU406
	pop	{r4, r5}
	pop	{r3}
	add	sp, sp, #12
	bx	r3
.L156:
	.align	2
.L155:
	.word	.LANCHOR1
	.cfi_endproc
.LFE6:
	.size	xfprintf, .-xfprintf
	.section	.text.put_dump,"ax",%progbits
	.align	1
	.p2align 2,,3
	.global	put_dump
	.syntax unified
	.code	16
	.thumb_func
	.fpu softvfp
	.type	put_dump, %function
put_dump:
.LVL198:
.LFB7:
	.loc 1 231 1 is_stmt 1 view -0
	.cfi_startproc
	@ args = 0, pretend = 0, frame = 0
	@ frame_needed = 0, uses_anonymous_args = 0
	.loc 1 232 2 view .LVU408
	.loc 1 233 2 view .LVU409
	.loc 1 234 2 view .LVU410
	.loc 1 235 2 view .LVU411
	.loc 1 238 2 view .LVU412
	.loc 1 231 1 is_stmt 0 view .LVU413
	push	{r3, r4, r5, r6, r7, lr}
	.cfi_def_cfa_offset 24
	.cfi_offset 3, -24
	.cfi_offset 4, -20
	.cfi_offset 5, -16
	.cfi_offset 6, -12
	.cfi_offset 7, -8
	.cfi_offset 14, -4
	.loc 1 231 1 view .LVU414
	movs	r4, r0
	.loc 1 238 2 view .LVU415
	ldr	r0, .L177
.LVL199:
	.loc 1 231 1 view .LVU416
	movs	r6, r3
	movs	r5, r2
	.loc 1 238 2 view .LVU417
	bl	xprintf
.LVL200:
	.loc 1 240 2 is_stmt 1 view .LVU418
	cmp	r6, #2
	beq	.L158
	cmp	r6, #4
	beq	.L159
	cmp	r6, #1
	beq	.L176
.LVL201:
.L160:
	.loc 1 263 2 view .LVU419
	movs	r0, #10
	bl	xputc
.LVL202:
	.loc 1 264 1 is_stmt 0 view .LVU420
	@ sp needed
	pop	{r3, r4, r5, r6, r7, pc}
.LVL203:
.L158:
	.loc 1 264 1 view .LVU421
	lsls	r5, r5, #1
.LVL204:
	.loc 1 264 1 view .LVU422
	ldr	r6, .L177+4
.LVL205:
	.loc 1 264 1 view .LVU423
	adds	r5, r4, r5
.LVL206:
.L166:
	.loc 1 251 3 is_stmt 1 discriminator 1 view .LVU424
	.loc 1 252 4 discriminator 1 view .LVU425
	.loc 1 252 4 is_stmt 0 discriminator 1 view .LVU426
	ldrh	r1, [r4]
	movs	r0, r6
	adds	r4, r4, #2
.LVL207:
	.loc 1 252 4 discriminator 1 view .LVU427
	bl	xprintf
.LVL208:
	.loc 1 253 3 discriminator 1 view .LVU428
	cmp	r4, r5
	bne	.L166
	b	.L160
.LVL209:
.L176:
	.loc 1 243 3 view .LVU429
	cmp	r5, #0
	ble	.L161
	movs	r6, r4
.LVL210:
	.loc 1 243 3 view .LVU430
	ldr	r7, .L177+8
	adds	r5, r4, r5
.LVL211:
.L162:
	.loc 1 244 4 is_stmt 1 discriminator 3 view .LVU431
	ldrb	r1, [r6]
	movs	r0, r7
	adds	r6, r6, #1
.LVL212:
	.loc 1 244 4 is_stmt 0 discriminator 3 view .LVU432
	bl	xprintf
.LVL213:
	.loc 1 243 3 discriminator 3 view .LVU433
	cmp	r6, r5
	bne	.L162
	.loc 1 245 3 is_stmt 1 view .LVU434
	movs	r0, #32
	bl	xputc
.LVL214:
	.loc 1 246 3 view .LVU435
.L165:
	.loc 1 247 4 view .LVU436
	.loc 1 247 13 is_stmt 0 view .LVU437
	ldrb	r0, [r4]
	.loc 1 247 4 view .LVU438
	movs	r3, r0
	subs	r3, r3, #32
	cmp	r3, #94
	bls	.L164
	movs	r0, #46
.L164:
	adds	r4, r4, #1
.LVL215:
	.loc 1 247 4 discriminator 4 view .LVU439
	bl	xputc
.LVL216:
	.loc 1 246 3 discriminator 4 view .LVU440
	cmp	r4, r5
	bne	.L165
	b	.L160
.LVL217:
.L159:
	.loc 1 246 3 discriminator 4 view .LVU441
	ldr	r6, .L177+12
.LVL218:
.L168:
	.loc 1 257 3 is_stmt 1 discriminator 1 view .LVU442
	.loc 1 258 4 discriminator 1 view .LVU443
	.loc 1 258 4 is_stmt 0 discriminator 1 view .LVU444
	ldmia	r4!, {r1}
.LVL219:
	.loc 1 258 4 discriminator 1 view .LVU445
	movs	r0, r6
	.loc 1 259 3 discriminator 1 view .LVU446
	subs	r5, r5, #1
.LVL220:
	.loc 1 258 4 discriminator 1 view .LVU447
	bl	xprintf
.LVL221:
	.loc 1 259 3 discriminator 1 view .LVU448
	cmp	r5, #0
	bne	.L168
	b	.L160
.LVL222:
.L161:
	.loc 1 245 3 is_stmt 1 view .LVU449
	movs	r0, #32
	bl	xputc
.LVL223:
	.loc 1 246 3 view .LVU450
	.loc 1 246 3 is_stmt 0 view .LVU451
	b	.L160
.L178:
	.align	2
.L177:
	.word	.LC7
	.word	.LC11
	.word	.LC9
	.word	.LC13
	.cfi_endproc
.LFE7:
	.size	put_dump, .-put_dump
	.section	.text.xgets,"ax",%progbits
	.align	1
	.p2align 2,,3
	.global	xgets
	.syntax unified
	.code	16
	.thumb_func
	.fpu softvfp
	.type	xgets, %function
xgets:
.LVL224:
.LFB8:
	.loc 1 281 1 is_stmt 1 view -0
	.cfi_startproc
	@ args = 0, pretend = 0, frame = 0
	@ frame_needed = 0, uses_anonymous_args = 0
	.loc 1 282 2 view .LVU453
	.loc 1 285 2 view .LVU454
	.loc 1 285 6 is_stmt 0 view .LVU455
	ldr	r3, .L182
	.loc 1 281 1 view .LVU456
	push	{r4, lr}
	.cfi_def_cfa_offset 8
	.cfi_offset 4, -8
	.cfi_offset 14, -4
	.loc 1 285 5 view .LVU457
	ldr	r3, [r3]
	cmp	r3, #0
	beq	.L181
	bl	xgets.part.1
.LVL225:
.L179:
	.loc 1 305 1 view .LVU458
	@ sp needed
	pop	{r4, pc}
.LVL226:
.L181:
	.loc 1 285 24 view .LVU459
	movs	r0, #0
.LVL227:
	.loc 1 285 24 view .LVU460
	b	.L179
.L183:
	.align	2
.L182:
	.word	.LANCHOR2
	.cfi_endproc
.LFE8:
	.size	xgets, .-xgets
	.section	.text.xfgets,"ax",%progbits
	.align	1
	.p2align 2,,3
	.global	xfgets
	.syntax unified
	.code	16
	.thumb_func
	.fpu softvfp
	.type	xfgets, %function
xfgets:
.LVL228:
.LFB9:
	.loc 1 313 1 is_stmt 1 view -0
	.cfi_startproc
	@ args = 0, pretend = 0, frame = 0
	@ frame_needed = 0, uses_anonymous_args = 0
	.loc 1 314 2 view .LVU462
	.loc 1 315 2 view .LVU463
	.loc 1 318 2 view .LVU464
	.loc 1 313 1 is_stmt 0 view .LVU465
	push	{r4, r5, r6, lr}
	.cfi_def_cfa_offset 16
	.cfi_offset 4, -16
	.cfi_offset 5, -12
	.cfi_offset 6, -8
	.cfi_offset 14, -4
	.loc 1 318 5 view .LVU466
	ldr	r4, .L187
	.loc 1 313 1 view .LVU467
	movs	r3, r1
	.loc 1 318 5 view .LVU468
	ldr	r5, [r4]
.LVL229:
	.loc 1 319 2 is_stmt 1 view .LVU469
	.loc 1 319 11 is_stmt 0 view .LVU470
	str	r0, [r4]
	.loc 1 320 2 is_stmt 1 view .LVU471
.LVL230:
.LBB12:
.LBI12:
	.loc 1 277 5 view .LVU472
.LBB13:
	.loc 1 282 2 view .LVU473
	.loc 1 285 2 view .LVU474
	.loc 1 285 5 is_stmt 0 view .LVU475
	cmp	r0, #0
	beq	.L186
	movs	r1, r2
.LVL231:
	.loc 1 285 5 view .LVU476
	movs	r0, r3
.LVL232:
	.loc 1 285 5 view .LVU477
	bl	xgets.part.1
.LVL233:
.L185:
	.loc 1 285 5 view .LVU478
.LBE13:
.LBE12:
	.loc 1 321 2 is_stmt 1 view .LVU479
	.loc 1 321 11 is_stmt 0 view .LVU480
	str	r5, [r4]
	.loc 1 323 2 is_stmt 1 view .LVU481
	.loc 1 324 1 is_stmt 0 view .LVU482
	@ sp needed
.LVL234:
	.loc 1 324 1 view .LVU483
	pop	{r4, r5, r6, pc}
.LVL235:
.L186:
.LBB15:
.LBB14:
	.loc 1 285 24 view .LVU484
	movs	r0, #0
.LVL236:
	.loc 1 285 24 view .LVU485
	b	.L185
.L188:
	.align	2
.L187:
	.word	.LANCHOR2
.LBE14:
.LBE15:
	.cfi_endproc
.LFE9:
	.size	xfgets, .-xfgets
	.section	.text.xatoi,"ax",%progbits
	.align	1
	.p2align 2,,3
	.global	xatoi
	.syntax unified
	.code	16
	.thumb_func
	.fpu softvfp
	.type	xatoi, %function
xatoi:
.LVL237:
.LFB10:
	.loc 1 343 1 is_stmt 1 view -0
	.cfi_startproc
	@ args = 0, pretend = 0, frame = 0
	@ frame_needed = 0, uses_anonymous_args = 0
	.loc 1 344 2 view .LVU487
	.loc 1 345 2 view .LVU488
	.loc 1 348 2 view .LVU489
	.loc 1 348 7 is_stmt 0 view .LVU490
	movs	r3, #0
	.loc 1 343 1 view .LVU491
	push	{r4, r5, r6, lr}
	.cfi_def_cfa_offset 16
	.cfi_offset 4, -16
	.cfi_offset 5, -12
	.cfi_offset 6, -8
	.cfi_offset 14, -4
	.loc 1 350 15 view .LVU492
	ldr	r4, [r0]
	.loc 1 348 7 view .LVU493
	str	r3, [r1]
	.loc 1 350 2 is_stmt 1 view .LVU494
	.loc 1 350 12 is_stmt 0 view .LVU495
	ldrb	r3, [r4]
.LVL238:
	.loc 1 350 8 view .LVU496
	cmp	r3, #32
	bne	.L190
	adds	r2, r4, #1
.L191:
.LVL239:
	.loc 1 350 29 is_stmt 1 discriminator 2 view .LVU497
	.loc 1 350 35 is_stmt 0 discriminator 2 view .LVU498
	str	r2, [r0]
	movs	r4, r2
	adds	r2, r2, #1
	.loc 1 350 12 discriminator 2 view .LVU499
	subs	r3, r2, #1
	ldrb	r3, [r3]
.LVL240:
	.loc 1 350 8 discriminator 2 view .LVU500
	cmp	r3, #32
	beq	.L191
.L190:
	.loc 1 352 2 is_stmt 1 view .LVU501
	.loc 1 345 22 is_stmt 0 view .LVU502
	movs	r6, #0
	.loc 1 352 5 view .LVU503
	cmp	r3, #45
	bne	.L192
	.loc 1 353 3 is_stmt 1 view .LVU504
.LVL241:
	.loc 1 354 3 view .LVU505
	.loc 1 354 9 is_stmt 0 view .LVU506
	adds	r3, r4, #1
.LVL242:
	.loc 1 354 5 view .LVU507
	str	r3, [r0]
	ldrb	r3, [r4, #1]
.LVL243:
	.loc 1 353 5 view .LVU508
	adds	r6, r6, #1
.LVL244:
.L192:
	.loc 1 357 2 is_stmt 1 view .LVU509
	.loc 1 357 5 is_stmt 0 view .LVU510
	cmp	r3, #48
	beq	.L215
	.loc 1 372 3 is_stmt 1 view .LVU511
	.loc 1 372 6 is_stmt 0 view .LVU512
	movs	r2, r3
	subs	r2, r2, #48
	cmp	r2, #9
	bhi	.L199
	.loc 1 373 5 view .LVU513
	movs	r5, #10
.L196:
.LVL245:
	.loc 1 376 2 is_stmt 1 view .LVU514
	.loc 1 377 2 view .LVU515
	.loc 1 377 8 is_stmt 0 view .LVU516
	cmp	r3, #32
	bls	.L208
.LVL246:
.L198:
	.loc 1 369 6 view .LVU517
	movs	r4, #0
	b	.L203
.LVL247:
.L216:
	.loc 1 378 17 is_stmt 1 discriminator 1 view .LVU518
	.loc 1 379 3 discriminator 1 view .LVU519
	.loc 1 380 3 discriminator 1 view .LVU520
	.loc 1 381 4 discriminator 1 view .LVU521
	.loc 1 381 6 is_stmt 0 discriminator 1 view .LVU522
	subs	r3, r3, #87
	uxtb	r2, r3
.LVL248:
	.loc 1 382 4 is_stmt 1 discriminator 1 view .LVU523
.L202:
	.loc 1 384 3 view .LVU524
	.loc 1 384 6 is_stmt 0 view .LVU525
	cmp	r2, r5
	bcs	.L199
	.loc 1 385 3 is_stmt 1 view .LVU526
	.loc 1 385 13 is_stmt 0 view .LVU527
	muls	r4, r5
.LVL249:
	.loc 1 386 12 view .LVU528
	ldr	r3, [r0]
	.loc 1 385 7 view .LVU529
	adds	r4, r2, r4
.LVL250:
	.loc 1 386 3 is_stmt 1 view .LVU530
	.loc 1 386 9 is_stmt 0 view .LVU531
	adds	r2, r3, #1
.LVL251:
	.loc 1 386 5 view .LVU532
	str	r2, [r0]
	ldrb	r3, [r3, #1]
.LVL252:
	.loc 1 377 8 view .LVU533
	cmp	r3, #32
	bls	.L200
.LVL253:
.L203:
	.loc 1 378 3 is_stmt 1 view .LVU534
	.loc 1 378 6 is_stmt 0 view .LVU535
	cmp	r3, #96
	bhi	.L216
	.loc 1 379 3 is_stmt 1 view .LVU536
	.loc 1 379 5 is_stmt 0 view .LVU537
	movs	r2, r3
	subs	r2, r2, #48
	uxtb	r2, r2
.LVL254:
	.loc 1 380 3 is_stmt 1 view .LVU538
	.loc 1 380 6 is_stmt 0 view .LVU539
	cmp	r2, #16
	bls	.L202
.LVL255:
	.loc 1 381 4 is_stmt 1 view .LVU540
	.loc 1 381 6 is_stmt 0 view .LVU541
	subs	r3, r3, #55
	uxtb	r2, r3
.LVL256:
	.loc 1 382 4 is_stmt 1 view .LVU542
	.loc 1 382 7 is_stmt 0 view .LVU543
	cmp	r2, #9
	bhi	.L202
.LVL257:
.L199:
	.loc 1 368 35 view .LVU544
	movs	r0, #0
.LVL258:
.L189:
	.loc 1 392 1 view .LVU545
	@ sp needed
.LVL259:
	.loc 1 392 1 view .LVU546
	pop	{r4, r5, r6, pc}
.LVL260:
.L215:
	.loc 1 358 3 is_stmt 1 view .LVU547
	.loc 1 358 12 is_stmt 0 view .LVU548
	ldr	r2, [r0]
	.loc 1 358 9 view .LVU549
	adds	r3, r2, #1
.LVL261:
	.loc 1 358 5 view .LVU550
	str	r3, [r0]
	ldrb	r3, [r2, #1]
.LVL262:
	.loc 1 359 3 is_stmt 1 view .LVU551
	cmp	r3, #98
	beq	.L194
	cmp	r3, #120
	beq	.L217
	.loc 1 367 4 view .LVU552
	.loc 1 367 7 is_stmt 0 view .LVU553
	cmp	r3, #32
	bls	.L206
	.loc 1 368 4 is_stmt 1 view .LVU554
	.loc 1 368 7 is_stmt 0 view .LVU555
	movs	r2, r3
	subs	r2, r2, #48
	.loc 1 369 6 view .LVU556
	movs	r5, #8
	.loc 1 368 7 view .LVU557
	cmp	r2, #9
	bls	.L198
	b	.L199
.LVL263:
.L208:
	.loc 1 376 6 view .LVU558
	movs	r4, #0
.LVL264:
.L200:
	.loc 1 388 2 is_stmt 1 view .LVU559
	.loc 1 388 5 is_stmt 0 view .LVU560
	cmp	r6, #0
	beq	.L204
	.loc 1 388 9 is_stmt 1 discriminator 1 view .LVU561
	.loc 1 388 13 is_stmt 0 discriminator 1 view .LVU562
	rsbs	r4, r4, #0
.LVL265:
.L204:
	.loc 1 390 2 is_stmt 1 view .LVU563
	.loc 1 390 7 is_stmt 0 view .LVU564
	str	r4, [r1]
	.loc 1 391 2 is_stmt 1 view .LVU565
	.loc 1 391 9 is_stmt 0 view .LVU566
	movs	r0, #1
.LVL266:
	.loc 1 391 9 view .LVU567
	b	.L189
.LVL267:
.L217:
	.loc 1 361 4 is_stmt 1 view .LVU568
	.loc 1 361 12 view .LVU569
	.loc 1 361 18 is_stmt 0 view .LVU570
	adds	r3, r2, #2
.LVL268:
	.loc 1 361 14 view .LVU571
	str	r3, [r0]
.LVL269:
	.loc 1 361 14 view .LVU572
	ldrb	r3, [r2, #2]
.LVL270:
	.loc 1 362 4 is_stmt 1 view .LVU573
	.loc 1 361 6 is_stmt 0 view .LVU574
	movs	r5, #16
	.loc 1 362 4 view .LVU575
	b	.L196
.LVL271:
.L194:
	.loc 1 364 4 is_stmt 1 view .LVU576
	.loc 1 364 11 view .LVU577
	.loc 1 364 17 is_stmt 0 view .LVU578
	adds	r3, r2, #2
.LVL272:
	.loc 1 364 13 view .LVU579
	str	r3, [r0]
.LVL273:
	.loc 1 364 13 view .LVU580
	ldrb	r3, [r2, #2]
.LVL274:
	.loc 1 365 4 is_stmt 1 view .LVU581
	.loc 1 364 6 is_stmt 0 view .LVU582
	movs	r5, #2
	.loc 1 365 4 view .LVU583
	b	.L196
.LVL275:
.L206:
	.loc 1 367 25 view .LVU584
	movs	r0, #1
.LVL276:
	.loc 1 367 25 view .LVU585
	b	.L189
	.cfi_endproc
.LFE10:
	.size	xatoi, .-xatoi
	.global	xfunc_in
	.global	xfunc_out
	.section	.bss.outptr,"aw",%nobits
	.align	2
	.set	.LANCHOR0,. + 0
	.type	outptr, %object
	.size	outptr, 4
outptr:
	.space	4
	.section	.bss.xfunc_in,"aw",%nobits
	.align	2
	.set	.LANCHOR2,. + 0
	.type	xfunc_in, %object
	.size	xfunc_in, 4
xfunc_in:
	.space	4
	.section	.bss.xfunc_out,"aw",%nobits
	.align	2
	.set	.LANCHOR1,. + 0
	.type	xfunc_out, %object
	.size	xfunc_out, 4
xfunc_out:
	.space	4
	.section	.rodata.put_dump.str1.4,"aMS",%progbits,1
	.align	2
.LC7:
	.ascii	"%08lX \000"
	.space	1
.LC9:
	.ascii	" %02X\000"
	.space	2
.LC11:
	.ascii	" %04X\000"
	.space	2
.LC13:
	.ascii	" %08LX\000"
	.text
.Letext0:
	.file 2 "../include/xprintf.h"
	.file 3 "/home/a.malinowsk2/Programs/gcc-arm-none-eabi-8-2018-q4-major/lib/gcc/arm-none-eabi/8.2.1/include/stdarg.h"
	.file 4 "<built-in>"